

801972c4 <backup_reg>:

801972c4:	38 21 ff 80 	addi    r1,r1,-128
801972c8:	bc 61 00 0c 	stmw    r3,12(r1)
801972cc:	90 01 00 08 	stw     r0,8(r1)
801972d0:	7c 00 00 26 	mfcr    r0
801972d4:	90 01 00 04 	stw     r0,4(r1)
801972d8:	7c 09 02 a6 	mfctr   r0
801972dc:	90 01 00 00 	stw     r0,0(r1)
801972e0:	4e 80 00 20 	blr


801972e4 <restore_reg>:

801972e4:	80 01 00 00 	lwz     r0,0(r1)
801972e8:	7c 09 03 a6 	mtctr   r0
801972ec:	80 01 00 04 	lwz     r0,4(r1)
801972f0:	7c 0f f1 20 	mtcr    r0
801972f4:	80 01 00 08 	lwz     r0,8(r1)
801972f8:	b8 61 00 0c 	lmw     r3,12(r1)
801972fc:	38 21 00 80 	addi    r1,r1,128
80197300:	4e 80 00 20 	blr


80377998 <inject_point_0>:

80377998:	4b e1 fa 64 	b       801973fc <stack_setup_0>


801973fc <stack_setup_0>:

801973fc:	38 21 ff fc 	addi    r1,r1,-4
80197400:	90 01 00 04 	stw     r0,4(r1)
80197404:	7c 08 02 a6 	mflr    r0
80197408:	4b ff fe bd 	bl      801972c4 <backup_reg>
8019740c:	4b ff ee e5 	bl      801962f0 <_main>
80197410:	4b ff fe d5 	bl      801972e4 <restore_reg>
80197414:	7c 08 03 a6 	mtlr    r0
80197418:	80 01 00 04 	lwz     r0,4(r1)
8019741c:	38 21 00 04 	addi    r1,r1,4
80197420:	60 00 00 00 	nop
80197424:	48 1e 05 78 	b       8037799c <inject_point_0+0x4>


801a633c <inject_point_1>:

801a633c:	4b ff 10 90 	b       801973cc <stack_setup_1>


801973cc <stack_setup_1>:

801973cc:	38 21 ff fc 	addi    r1,r1,-4
801973d0:	90 01 00 04 	stw     r0,4(r1)
801973d4:	7c 08 02 a6 	mflr    r0
801973d8:	4b ff fe ed 	bl      801972c4 <backup_reg>
801973dc:	4b ff fd 29 	bl      80197104 <_display>
801973e0:	4b ff ff 05 	bl      801972e4 <restore_reg>
801973e4:	7c 08 03 a6 	mtlr    r0
801973e8:	80 01 00 04 	lwz     r0,4(r1)
801973ec:	38 21 00 04 	addi    r1,r1,4
801973f0:	60 00 00 00 	nop
801973f4:	48 00 ef 4c 	b       801a6340 <inject_point_1+0x4>


80197558 <tests_passed>:

80197558:	00 00 00 01 	.long 0x1


80197560 <init>:

80197560:	00 00 00 00 	.long 0x0


801910e4 <heap>:



80197578 <tests_run>:

80197578:	00 00 00 00 	.long 0x0


80197580 <min1>:

80197580:	3f 80 00 00 	lis     r28,0


80197588 <max1>:

80197588:	00 00 00 00 	.long 0x0


80197590 <min2>:

80197590:	41 18 00 00 	bdnzt   4*cr6+lt,80197590 <min2>


80197598 <max2>:

80197598:	41 14 cc cd 	bdnztl  4*cr5+lt,80194264 <heap+0x3180>


801975a0 <min3>:

801975a0:	00 00 00 04 	.long 0x4


801975b0 <max3>:

801975b0:	00 00 00 00 	.long 0x0


801975a8 <sum>:

801975a8:	00 00 00 00 	.long 0x0


80197280 <_init>:

80197280:	94 21 ff f0 	stwu    r1,-16(r1)
80197284:	7c 08 02 a6 	mflr    r0
80197288:	90 01 00 14 	stw     r0,20(r1)
8019728c:	93 e1 00 0c 	stw     r31,12(r1)
80197290:	7c 3f 0b 78 	mr      r31,r1
80197294:	3d 20 80 19 	lis     r9,-32743
80197298:	38 69 10 e4 	addi    r3,r9,4324
8019729c:	3d 20 80 19 	lis     r9,-32743
801972a0:	38 89 62 ec 	addi    r4,r9,25324
801972a4:	4b ff fc 45 	bl      80196ee8 <initHeap>
801972a8:	39 7f 00 10 	addi    r11,r31,16
801972ac:	80 0b 00 04 	lwz     r0,4(r11)
801972b0:	7c 08 03 a6 	mtlr    r0
801972b4:	83 eb ff fc 	lwz     r31,-4(r11)
801972b8:	7d 61 5b 78 	mr      r1,r11
801972bc:	4e 80 00 20 	blr


80196b78 <wiimake_section_18>:

80196b78:	61 73 73 65 	ori     r19,r11,29541
80196b7c:	72 74 20 66 	andi.   r20,r19,8294
80196b80:	61 69 6c 65 	ori     r9,r11,27749
80196b84:	64 3a 20 74 	oris    r26,r1,8308
80196b88:	65 73 74 73 	oris    r19,r11,29811
80196b8c:	2f 74 65 73 	cmpdi   cr6,r20,25971
80196b90:	74 52 61 6e 	andis.  r18,r2,24942
80196b94:	64 6f 6d 2e 	oris    r15,r3,27950
80196b98:	63 3a 33 34 	ori     r26,r25,13108
80196b9c:	00 00 00 00 	.long 0x0
80196ba0:	61 73 73 65 	ori     r19,r11,29541
80196ba4:	72 74 20 66 	andi.   r20,r19,8294
80196ba8:	61 69 6c 65 	ori     r9,r11,27749
80196bac:	64 3a 20 74 	oris    r26,r1,8308
80196bb0:	65 73 74 73 	oris    r19,r11,29811
80196bb4:	2f 74 65 73 	cmpdi   cr6,r20,25971
80196bb8:	74 52 61 6e 	andis.  r18,r2,24942
80196bbc:	64 6f 6d 2e 	oris    r15,r3,27950
80196bc0:	63 3a 33 35 	ori     r26,r25,13109
80196bc4:	00 00 00 00 	.long 0x0
80196bc8:	61 73 73 65 	ori     r19,r11,29541
80196bcc:	72 74 20 66 	andi.   r20,r19,8294
80196bd0:	61 69 6c 65 	ori     r9,r11,27749
80196bd4:	64 3a 20 74 	oris    r26,r1,8308
80196bd8:	65 73 74 73 	oris    r19,r11,29811
80196bdc:	2f 74 65 73 	cmpdi   cr6,r20,25971
80196be0:	74 52 61 6e 	andis.  r18,r2,24942
80196be4:	64 6f 6d 2e 	oris    r15,r3,27950
80196be8:	63 3a 34 38 	ori     r26,r25,13368
80196bec:	00 00 00 00 	.long 0x0
80196bf0:	61 73 73 65 	ori     r19,r11,29541
80196bf4:	72 74 20 66 	andi.   r20,r19,8294
80196bf8:	61 69 6c 65 	ori     r9,r11,27749
80196bfc:	64 3a 20 74 	oris    r26,r1,8308
80196c00:	65 73 74 73 	oris    r19,r11,29811
80196c04:	2f 74 65 73 	cmpdi   cr6,r20,25971
80196c08:	74 52 61 6e 	andis.  r18,r2,24942
80196c0c:	64 6f 6d 2e 	oris    r15,r3,27950
80196c10:	63 3a 34 39 	ori     r26,r25,13369
80196c14:	00 00 00 00 	.long 0x0
80196c18:	61 73 73 65 	ori     r19,r11,29541
80196c1c:	72 74 20 66 	andi.   r20,r19,8294
80196c20:	61 69 6c 65 	ori     r9,r11,27749
80196c24:	64 3a 20 74 	oris    r26,r1,8308
80196c28:	65 73 74 73 	oris    r19,r11,29811
80196c2c:	2f 74 65 73 	cmpdi   cr6,r20,25971
80196c30:	74 52 61 6e 	andis.  r18,r2,24942
80196c34:	64 6f 6d 2e 	oris    r15,r3,27950
80196c38:	63 3a 35 31 	ori     r26,r25,13617
80196c3c:	00 00 00 00 	.long 0x0
80196c40:	61 73 73 65 	ori     r19,r11,29541
80196c44:	72 74 20 66 	andi.   r20,r19,8294
80196c48:	61 69 6c 65 	ori     r9,r11,27749
80196c4c:	64 3a 20 74 	oris    r26,r1,8308
80196c50:	65 73 74 73 	oris    r19,r11,29811
80196c54:	2f 74 65 73 	cmpdi   cr6,r20,25971
80196c58:	74 52 61 6e 	andis.  r18,r2,24942
80196c5c:	64 6f 6d 2e 	oris    r15,r3,27950
80196c60:	63 3a 35 32 	ori     r26,r25,13618
80196c64:	00 00 00 00 	.long 0x0
80196c68:	61 73 73 65 	ori     r19,r11,29541
80196c6c:	72 74 20 66 	andi.   r20,r19,8294
80196c70:	61 69 6c 65 	ori     r9,r11,27749
80196c74:	64 3a 20 74 	oris    r26,r1,8308
80196c78:	65 73 74 73 	oris    r19,r11,29811
80196c7c:	2f 74 65 73 	cmpdi   cr6,r20,25971
80196c80:	74 52 61 6e 	andis.  r18,r2,24942
80196c84:	64 6f 6d 2e 	oris    r15,r3,27950
80196c88:	63 3a 35 34 	ori     r26,r25,13620
80196c8c:	00 00 00 00 	.long 0x0
80196c90:	61 73 73 65 	ori     r19,r11,29541
80196c94:	72 74 20 66 	andi.   r20,r19,8294
80196c98:	61 69 6c 65 	ori     r9,r11,27749
80196c9c:	64 3a 20 74 	oris    r26,r1,8308
80196ca0:	65 73 74 73 	oris    r19,r11,29811
80196ca4:	2f 74 65 73 	cmpdi   cr6,r20,25971
80196ca8:	74 52 61 6e 	andis.  r18,r2,24942
80196cac:	64 6f 6d 2e 	oris    r15,r3,27950
80196cb0:	63 3a 35 35 	ori     r26,r25,13621
80196cb4:	00 00 00 00 	.long 0x0
80196cb8:	61 73 73 65 	ori     r19,r11,29541
80196cbc:	72 74 20 66 	andi.   r20,r19,8294
80196cc0:	61 69 6c 65 	ori     r9,r11,27749
80196cc4:	64 3a 20 74 	oris    r26,r1,8308
80196cc8:	65 73 74 73 	oris    r19,r11,29811
80196ccc:	2f 74 65 73 	cmpdi   cr6,r20,25971
80196cd0:	74 52 61 6e 	andis.  r18,r2,24942
80196cd4:	64 6f 6d 2e 	oris    r15,r3,27950
80196cd8:	63 3a 35 37 	ori     r26,r25,13623
80196cdc:	00 00 00 00 	.long 0x0
80196ce0:	61 73 73 65 	ori     r19,r11,29541
80196ce4:	72 74 20 66 	andi.   r20,r19,8294
80196ce8:	61 69 6c 65 	ori     r9,r11,27749
80196cec:	64 3a 20 74 	oris    r26,r1,8308
80196cf0:	65 73 74 73 	oris    r19,r11,29811
80196cf4:	2f 74 65 73 	cmpdi   cr6,r20,25971
80196cf8:	74 52 61 6e 	andis.  r18,r2,24942
80196cfc:	64 6f 6d 2e 	oris    r15,r3,27950
80196d00:	63 3a 35 38 	ori     r26,r25,13624
80196d04:	00 00 00 00 	.long 0x0
80196d08:	61 6c 6c 20 	ori     r12,r11,27680
80196d0c:	74 65 73 74 	andis.  r5,r3,29556
80196d10:	73 20 70 61 	andi.   r0,r25,28769
80196d14:	73 73 65 64 	andi.   r19,r27,25956
80196d18:	21 00 00 00 	subfic  r8,r0,0


801974a8 <wiimake_section_19>:

801974a8:	3d cc cc cd 	addis   r14,r12,-13107
801974ac:	3e 99 99 9a 	addis   r20,r25,-26214
801974b0:	3e cc cc cd 	addis   r22,r12,-13107
801974b4:	3d cc cc cd 	addis   r14,r12,-13107
801974b8:	3d cc cc cd 	addis   r14,r12,-13107


801962f0 <_main>:

801962f0:	94 21 ff d0 	stwu    r1,-48(r1)
801962f4:	7c 08 02 a6 	mflr    r0
801962f8:	90 01 00 34 	stw     r0,52(r1)
801962fc:	93 e1 00 2c 	stw     r31,44(r1)
80196300:	7c 3f 0b 78 	mr      r31,r1
80196304:	3d 20 80 19 	lis     r9,-32743
80196308:	81 29 75 60 	lwz     r9,30048(r9)
8019630c:	2f 89 00 00 	cmpwi   cr7,r9,0
80196310:	40 9e 00 14 	bne     cr7,80196324 <_main+0x34>
80196314:	48 00 0f 6d 	bl      80197280 <_init>
80196318:	3d 20 80 19 	lis     r9,-32743
8019631c:	39 40 00 01 	li      r10,1
80196320:	91 49 75 60 	stw     r10,30048(r9)
80196324:	3d 20 80 19 	lis     r9,-32743
80196328:	81 29 75 78 	lwz     r9,30072(r9)
8019632c:	2f 89 00 00 	cmpwi   cr7,r9,0
80196330:	40 9e 04 58 	bne     cr7,80196788 <_main+0x498>
80196334:	3d 20 80 19 	lis     r9,-32743
80196338:	39 29 74 a8 	addi    r9,r9,29864
8019633c:	80 c9 00 00 	lwz     r6,0(r9)
80196340:	80 e9 00 04 	lwz     r7,4(r9)
80196344:	81 09 00 08 	lwz     r8,8(r9)
80196348:	81 49 00 0c 	lwz     r10,12(r9)
8019634c:	90 df 00 0c 	stw     r6,12(r31)
80196350:	90 ff 00 10 	stw     r7,16(r31)
80196354:	91 1f 00 14 	stw     r8,20(r31)
80196358:	91 5f 00 18 	stw     r10,24(r31)
8019635c:	81 29 00 10 	lwz     r9,16(r9)
80196360:	91 3f 00 1c 	stw     r9,28(r31)
80196364:	39 20 00 00 	li      r9,0
80196368:	91 3f 00 08 	stw     r9,8(r31)
8019636c:	48 00 02 14 	b       80196580 <_main+0x290>
80196370:	48 00 0a f9 	bl      80196e68 <rand>
80196374:	fc 00 08 90 	fmr     f0,f1
80196378:	3d 20 80 19 	lis     r9,-32743
8019637c:	c1 a9 74 cc 	lfs     f13,29900(r9)
80196380:	ff 80 68 00 	fcmpu   cr7,f0,f13
80196384:	4f dd f3 82 	cror    4*cr7+eq,4*cr7+gt,4*cr7+eq
80196388:	7d 20 00 26 	mfcr    r9
8019638c:	55 29 ff fe 	rlwinm  r9,r9,31,31,31
80196390:	55 29 06 3e 	clrlwi  r9,r9,24
80196394:	69 29 00 01 	xori    r9,r9,1
80196398:	55 29 06 3e 	clrlwi  r9,r9,24
8019639c:	2f 89 00 00 	cmpwi   cr7,r9,0
801963a0:	41 9e 00 1c 	beq     cr7,801963bc <_main+0xcc>
801963a4:	3d 20 80 19 	lis     r9,-32743
801963a8:	38 69 6b 78 	addi    r3,r9,27512
801963ac:	48 00 03 f9 	bl      801967a4 <print>
801963b0:	3d 20 80 19 	lis     r9,-32743
801963b4:	39 40 00 00 	li      r10,0
801963b8:	91 49 75 58 	stw     r10,30040(r9)
801963bc:	48 00 0a ad 	bl      80196e68 <rand>
801963c0:	fd a0 08 90 	fmr     f13,f1
801963c4:	3d 20 80 19 	lis     r9,-32743
801963c8:	c0 09 74 c0 	lfs     f0,29888(r9)
801963cc:	ff 8d 00 00 	fcmpu   cr7,f13,f0
801963d0:	4f dc f3 82 	cror    4*cr7+eq,4*cr7+lt,4*cr7+eq
801963d4:	7d 20 00 26 	mfcr    r9
801963d8:	55 29 ff fe 	rlwinm  r9,r9,31,31,31
801963dc:	55 29 06 3e 	clrlwi  r9,r9,24
801963e0:	69 29 00 01 	xori    r9,r9,1
801963e4:	55 29 06 3e 	clrlwi  r9,r9,24
801963e8:	2f 89 00 00 	cmpwi   cr7,r9,0
801963ec:	41 9e 00 1c 	beq     cr7,80196408 <_main+0x118>
801963f0:	3d 20 80 19 	lis     r9,-32743
801963f4:	38 69 6b a0 	addi    r3,r9,27552
801963f8:	48 00 03 ad 	bl      801967a4 <print>
801963fc:	3d 20 80 19 	lis     r9,-32743
80196400:	39 40 00 00 	li      r10,0
80196404:	91 49 75 58 	stw     r10,30040(r9)
80196408:	48 00 0a 61 	bl      80196e68 <rand>
8019640c:	fd a0 08 90 	fmr     f13,f1
80196410:	3d 20 80 19 	lis     r9,-32743
80196414:	c0 09 75 80 	lfs     f0,30080(r9)
80196418:	fc 20 68 90 	fmr     f1,f13
8019641c:	fc 40 00 90 	fmr     f2,f0
80196420:	48 00 0d 8d 	bl      801971ac <fmin>
80196424:	fc 00 08 90 	fmr     f0,f1
80196428:	3d 20 80 19 	lis     r9,-32743
8019642c:	d0 09 75 80 	stfs    f0,30080(r9)
80196430:	48 00 0a 39 	bl      80196e68 <rand>
80196434:	fd a0 08 90 	fmr     f13,f1
80196438:	3d 20 80 19 	lis     r9,-32743
8019643c:	c0 09 75 88 	lfs     f0,30088(r9)
80196440:	fc 20 68 90 	fmr     f1,f13
80196444:	fc 40 00 90 	fmr     f2,f0
80196448:	48 00 0d ad 	bl      801971f4 <fmax>
8019644c:	fc 00 08 90 	fmr     f0,f1
80196450:	3d 20 80 19 	lis     r9,-32743
80196454:	d0 09 75 88 	stfs    f0,30088(r9)
80196458:	3d 20 80 19 	lis     r9,-32743
8019645c:	c1 a9 74 c4 	lfs     f13,29892(r9)
80196460:	3d 20 80 19 	lis     r9,-32743
80196464:	c0 09 74 c8 	lfs     f0,29896(r9)
80196468:	fc 20 68 90 	fmr     f1,f13
8019646c:	fc 40 00 90 	fmr     f2,f0
80196470:	48 00 0c 39 	bl      801970a8 <uniform>
80196474:	fd a0 08 90 	fmr     f13,f1
80196478:	3d 20 80 19 	lis     r9,-32743
8019647c:	c0 09 75 90 	lfs     f0,30096(r9)
80196480:	fc 20 68 90 	fmr     f1,f13
80196484:	fc 40 00 90 	fmr     f2,f0
80196488:	48 00 0d 25 	bl      801971ac <fmin>
8019648c:	fc 00 08 90 	fmr     f0,f1
80196490:	3d 20 80 19 	lis     r9,-32743
80196494:	d0 09 75 90 	stfs    f0,30096(r9)
80196498:	3d 20 80 19 	lis     r9,-32743
8019649c:	c1 a9 74 c4 	lfs     f13,29892(r9)
801964a0:	3d 20 80 19 	lis     r9,-32743
801964a4:	c0 09 74 c8 	lfs     f0,29896(r9)
801964a8:	fc 20 68 90 	fmr     f1,f13
801964ac:	fc 40 00 90 	fmr     f2,f0
801964b0:	48 00 0b f9 	bl      801970a8 <uniform>
801964b4:	fd a0 08 90 	fmr     f13,f1
801964b8:	3d 20 80 19 	lis     r9,-32743
801964bc:	c0 09 75 98 	lfs     f0,30104(r9)
801964c0:	fc 20 68 90 	fmr     f1,f13
801964c4:	fc 40 00 90 	fmr     f2,f0
801964c8:	48 00 0d 2d 	bl      801971f4 <fmax>
801964cc:	fc 00 08 90 	fmr     f0,f1
801964d0:	3d 20 80 19 	lis     r9,-32743
801964d4:	d0 09 75 98 	stfs    f0,30104(r9)
801964d8:	39 3f 00 0c 	addi    r9,r31,12
801964dc:	7d 23 4b 78 	mr      r3,r9
801964e0:	38 80 00 05 	li      r4,5
801964e4:	48 00 08 3d 	bl      80196d20 <sample>
801964e8:	7c 69 1b 78 	mr      r9,r3
801964ec:	7d 2a 4b 78 	mr      r10,r9
801964f0:	3d 20 80 19 	lis     r9,-32743
801964f4:	81 29 75 a0 	lwz     r9,30112(r9)
801964f8:	7d 43 53 78 	mr      r3,r10
801964fc:	7d 24 4b 78 	mr      r4,r9
80196500:	48 00 0e 8d 	bl      8019738c <imin>
80196504:	7c 6a 1b 78 	mr      r10,r3
80196508:	3d 20 80 19 	lis     r9,-32743
8019650c:	91 49 75 a0 	stw     r10,30112(r9)
80196510:	39 3f 00 0c 	addi    r9,r31,12
80196514:	7d 23 4b 78 	mr      r3,r9
80196518:	38 80 00 05 	li      r4,5
8019651c:	48 00 08 05 	bl      80196d20 <sample>
80196520:	7c 69 1b 78 	mr      r9,r3
80196524:	7d 2a 4b 78 	mr      r10,r9
80196528:	3d 20 80 19 	lis     r9,-32743
8019652c:	81 29 75 b0 	lwz     r9,30128(r9)
80196530:	7d 43 53 78 	mr      r3,r10
80196534:	7d 24 4b 78 	mr      r4,r9
80196538:	48 00 0e 15 	bl      8019734c <imax>
8019653c:	7c 6a 1b 78 	mr      r10,r3
80196540:	3d 20 80 19 	lis     r9,-32743
80196544:	91 49 75 b0 	stw     r10,30128(r9)
80196548:	39 3f 00 0c 	addi    r9,r31,12
8019654c:	7d 23 4b 78 	mr      r3,r9
80196550:	38 80 00 05 	li      r4,5
80196554:	48 00 07 cd 	bl      80196d20 <sample>
80196558:	7c 6a 1b 78 	mr      r10,r3
8019655c:	3d 20 80 19 	lis     r9,-32743
80196560:	81 29 75 a8 	lwz     r9,30120(r9)
80196564:	7d 2a 4a 14 	add     r9,r10,r9
80196568:	7d 2a 4b 78 	mr      r10,r9
8019656c:	3d 20 80 19 	lis     r9,-32743
80196570:	91 49 75 a8 	stw     r10,30120(r9)
80196574:	81 3f 00 08 	lwz     r9,8(r31)
80196578:	39 29 00 01 	addi    r9,r9,1
8019657c:	91 3f 00 08 	stw     r9,8(r31)
80196580:	81 3f 00 08 	lwz     r9,8(r31)
80196584:	2b 89 27 0f 	cmplwi  cr7,r9,9999
80196588:	40 9d fd e8 	ble     cr7,80196370 <_main+0x80>
8019658c:	3d 20 80 19 	lis     r9,-32743
80196590:	c0 09 75 80 	lfs     f0,30080(r9)
80196594:	3d 20 80 19 	lis     r9,-32743
80196598:	c1 a9 74 cc 	lfs     f13,29900(r9)
8019659c:	ff 80 68 00 	fcmpu   cr7,f0,f13
801965a0:	4f dd f3 82 	cror    4*cr7+eq,4*cr7+gt,4*cr7+eq
801965a4:	7d 20 00 26 	mfcr    r9
801965a8:	55 29 ff fe 	rlwinm  r9,r9,31,31,31
801965ac:	55 29 06 3e 	clrlwi  r9,r9,24
801965b0:	69 29 00 01 	xori    r9,r9,1
801965b4:	55 29 06 3e 	clrlwi  r9,r9,24
801965b8:	2f 89 00 00 	cmpwi   cr7,r9,0
801965bc:	41 9e 00 1c 	beq     cr7,801965d8 <_main+0x2e8>
801965c0:	3d 20 80 19 	lis     r9,-32743
801965c4:	38 69 6b c8 	addi    r3,r9,27592
801965c8:	48 00 01 dd 	bl      801967a4 <print>
801965cc:	3d 20 80 19 	lis     r9,-32743
801965d0:	39 40 00 00 	li      r10,0
801965d4:	91 49 75 58 	stw     r10,30040(r9)
801965d8:	3d 20 80 19 	lis     r9,-32743
801965dc:	c1 a9 75 88 	lfs     f13,30088(r9)
801965e0:	3d 20 80 19 	lis     r9,-32743
801965e4:	c0 09 74 c0 	lfs     f0,29888(r9)
801965e8:	ff 8d 00 00 	fcmpu   cr7,f13,f0
801965ec:	4f dc f3 82 	cror    4*cr7+eq,4*cr7+lt,4*cr7+eq
801965f0:	7d 20 00 26 	mfcr    r9
801965f4:	55 29 ff fe 	rlwinm  r9,r9,31,31,31
801965f8:	55 29 06 3e 	clrlwi  r9,r9,24
801965fc:	69 29 00 01 	xori    r9,r9,1
80196600:	55 29 06 3e 	clrlwi  r9,r9,24
80196604:	2f 89 00 00 	cmpwi   cr7,r9,0
80196608:	41 9e 00 1c 	beq     cr7,80196624 <_main+0x334>
8019660c:	3d 20 80 19 	lis     r9,-32743
80196610:	38 69 6b f0 	addi    r3,r9,27632
80196614:	48 00 01 91 	bl      801967a4 <print>
80196618:	3d 20 80 19 	lis     r9,-32743
8019661c:	39 40 00 00 	li      r10,0
80196620:	91 49 75 58 	stw     r10,30040(r9)
80196624:	3d 20 80 19 	lis     r9,-32743
80196628:	c0 09 75 90 	lfs     f0,30096(r9)
8019662c:	fd a0 00 90 	fmr     f13,f0
80196630:	3d 20 80 19 	lis     r9,-32743
80196634:	c8 09 75 00 	lfd     f0,29952(r9)
80196638:	ff 8d 00 00 	fcmpu   cr7,f13,f0
8019663c:	4f dd f3 82 	cror    4*cr7+eq,4*cr7+gt,4*cr7+eq
80196640:	7d 20 00 26 	mfcr    r9
80196644:	55 29 ff fe 	rlwinm  r9,r9,31,31,31
80196648:	55 29 06 3e 	clrlwi  r9,r9,24
8019664c:	69 29 00 01 	xori    r9,r9,1
80196650:	55 29 06 3e 	clrlwi  r9,r9,24
80196654:	2f 89 00 00 	cmpwi   cr7,r9,0
80196658:	41 9e 00 1c 	beq     cr7,80196674 <_main+0x384>
8019665c:	3d 20 80 19 	lis     r9,-32743
80196660:	38 69 6c 18 	addi    r3,r9,27672
80196664:	48 00 01 41 	bl      801967a4 <print>
80196668:	3d 20 80 19 	lis     r9,-32743
8019666c:	39 40 00 00 	li      r10,0
80196670:	91 49 75 58 	stw     r10,30040(r9)
80196674:	3d 20 80 19 	lis     r9,-32743
80196678:	c1 a9 75 98 	lfs     f13,30104(r9)
8019667c:	3d 20 80 19 	lis     r9,-32743
80196680:	c0 09 74 c8 	lfs     f0,29896(r9)
80196684:	ff 8d 00 00 	fcmpu   cr7,f13,f0
80196688:	4f dc f3 82 	cror    4*cr7+eq,4*cr7+lt,4*cr7+eq
8019668c:	7d 20 00 26 	mfcr    r9
80196690:	55 29 ff fe 	rlwinm  r9,r9,31,31,31
80196694:	55 29 06 3e 	clrlwi  r9,r9,24
80196698:	69 29 00 01 	xori    r9,r9,1
8019669c:	55 29 06 3e 	clrlwi  r9,r9,24
801966a0:	2f 89 00 00 	cmpwi   cr7,r9,0
801966a4:	41 9e 00 1c 	beq     cr7,801966c0 <_main+0x3d0>
801966a8:	3d 20 80 19 	lis     r9,-32743
801966ac:	38 69 6c 40 	addi    r3,r9,27712
801966b0:	48 00 00 f5 	bl      801967a4 <print>
801966b4:	3d 20 80 19 	lis     r9,-32743
801966b8:	39 40 00 00 	li      r10,0
801966bc:	91 49 75 58 	stw     r10,30040(r9)
801966c0:	3d 20 80 19 	lis     r9,-32743
801966c4:	81 29 75 a0 	lwz     r9,30112(r9)
801966c8:	2f 89 00 00 	cmpwi   cr7,r9,0
801966cc:	41 9e 00 1c 	beq     cr7,801966e8 <_main+0x3f8>
801966d0:	3d 20 80 19 	lis     r9,-32743
801966d4:	38 69 6c 68 	addi    r3,r9,27752
801966d8:	48 00 00 cd 	bl      801967a4 <print>
801966dc:	3d 20 80 19 	lis     r9,-32743
801966e0:	39 40 00 00 	li      r10,0
801966e4:	91 49 75 58 	stw     r10,30040(r9)
801966e8:	3d 20 80 19 	lis     r9,-32743
801966ec:	81 29 75 b0 	lwz     r9,30128(r9)
801966f0:	2f 89 00 04 	cmpwi   cr7,r9,4
801966f4:	41 9e 00 1c 	beq     cr7,80196710 <_main+0x420>
801966f8:	3d 20 80 19 	lis     r9,-32743
801966fc:	38 69 6c 90 	addi    r3,r9,27792
80196700:	48 00 00 a5 	bl      801967a4 <print>
80196704:	3d 20 80 19 	lis     r9,-32743
80196708:	39 40 00 00 	li      r10,0
8019670c:	91 49 75 58 	stw     r10,30040(r9)
80196710:	3d 20 80 19 	lis     r9,-32743
80196714:	81 29 75 a8 	lwz     r9,30120(r9)
80196718:	2f 89 44 f2 	cmpwi   cr7,r9,17650
8019671c:	41 9d 00 1c 	bgt     cr7,80196738 <_main+0x448>
80196720:	3d 20 80 19 	lis     r9,-32743
80196724:	38 69 6c b8 	addi    r3,r9,27832
80196728:	48 00 00 7d 	bl      801967a4 <print>
8019672c:	3d 20 80 19 	lis     r9,-32743
80196730:	39 40 00 00 	li      r10,0
80196734:	91 49 75 58 	stw     r10,30040(r9)
80196738:	3d 20 80 19 	lis     r9,-32743
8019673c:	81 29 75 a8 	lwz     r9,30120(r9)
80196740:	2f 89 47 ad 	cmpwi   cr7,r9,18349
80196744:	40 9d 00 1c 	ble     cr7,80196760 <_main+0x470>
80196748:	3d 20 80 19 	lis     r9,-32743
8019674c:	38 69 6c e0 	addi    r3,r9,27872
80196750:	48 00 00 55 	bl      801967a4 <print>
80196754:	3d 20 80 19 	lis     r9,-32743
80196758:	39 40 00 00 	li      r10,0
8019675c:	91 49 75 58 	stw     r10,30040(r9)
80196760:	3d 20 80 19 	lis     r9,-32743
80196764:	81 29 75 58 	lwz     r9,30040(r9)
80196768:	2f 89 00 00 	cmpwi   cr7,r9,0
8019676c:	41 9e 00 10 	beq     cr7,8019677c <_main+0x48c>
80196770:	3d 20 80 19 	lis     r9,-32743
80196774:	38 69 6d 08 	addi    r3,r9,27912
80196778:	48 00 00 2d 	bl      801967a4 <print>
8019677c:	3d 20 80 19 	lis     r9,-32743
80196780:	39 40 00 01 	li      r10,1
80196784:	91 49 75 78 	stw     r10,30072(r9)
80196788:	39 7f 00 30 	addi    r11,r31,48
8019678c:	80 0b 00 04 	lwz     r0,4(r11)
80196790:	7c 08 03 a6 	mtlr    r0
80196794:	83 eb ff fc 	lwz     r31,-4(r11)
80196798:	7d 61 5b 78 	mr      r1,r11
8019679c:	4e 80 00 20 	blr


801974c0 <wiimake_section_21>:

801974c0:	3f 80 00 00 	lis     r28,0
801974c4:	41 14 cc cd 	bdnztl  4*cr5+lt,80194190 <heap+0x30ac>
801974c8:	41 18 00 00 	bdnzt   4*cr6+lt,801974c8 <getHeapSize+0x70>
801974cc:	00 00 00 00 	.long 0x0


801974fc <wiimake_section_22>:

801974fc:	00 00 00 00 	.long 0x0
80197500:	40 22 99 99 	bdnzfl  eq,80190e98 <sin+0x7fe70e98>
80197504:	99 99 99 9a 	stb     r12,-26214(r25)


801974d4 <wiimake_section_23>:

801974d4:	41 00 00 00 	bdnzt   lt,801974d4 <getHeapSize+0x7c>
801974d8:	0f 67 6e 75 	twi     27,r7,28277
801974dc:	00 01 00 00 	.long 0x10000
801974e0:	00 07 04 01 	.long 0x70401


80197684 <wiimake_section_31>:

80197684:	00 00 00 00 	.long 0x0
80197688:	4f 00 00 00 	mcrf    cr6,cr0
8019768c:	00 00 00 00 	.long 0x0
80197690:	43 30 00 00 	bc+     24,4*cr4+lt,80197690 <max3+0xe0>
80197694:	00 00 00 00 	.long 0x0
80197698:	43 30 00 00 	bc+     24,4*cr4+lt,80197698 <max3+0xe8>
8019769c:	80 00 00 00 	lwz     r0,0(0)
801976a0:	00 00 00 00 	.long 0x0
801976a4:	3e 90 00 00 	addis   r20,r16,0
801976a8:	3f c9 0f db 	addis   r30,r9,4059
801976ac:	40 49 0f db 	bdzfla  4*cr2+gt,fd8 <memchr-0x10f028>
801976b0:	3f 80 00 00 	lis     r28,0
801976b4:	00 00 00 00 	.long 0x0
801976b8:	43 30 00 00 	bc+     24,4*cr4+lt,801976b8 <max3+0x108>
801976bc:	00 00 00 00 	.long 0x0
801976c0:	46 1c 40 00 	.long 0x461c4000
801976c4:	00 00 00 00 	.long 0x0


80197660 <wiimake_section_32>:

80197660:	41 00 00 00 	bdnzt   lt,80197660 <max3+0xb0>
80197664:	0f 67 6e 75 	twi     27,r7,28277
80197668:	00 01 00 00 	.long 0x10000
8019766c:	00 07 04 01 	.long 0x70401
80197670:	41 00 00 00 	bdnzt   lt,80197670 <max3+0xc0>
80197674:	0f 67 6e 75 	twi     27,r7,28277
80197678:	00 01 00 00 	.long 0x10000
8019767c:	00 07 04 01 	.long 0x70401


8019738c <imin>:

8019738c:	94 21 ff e8 	stwu    r1,-24(r1)
80197390:	93 e1 00 14 	stw     r31,20(r1)
80197394:	7c 3f 0b 78 	mr      r31,r1
80197398:	90 7f 00 08 	stw     r3,8(r31)
8019739c:	90 9f 00 0c 	stw     r4,12(r31)
801973a0:	81 5f 00 08 	lwz     r10,8(r31)
801973a4:	81 3f 00 0c 	lwz     r9,12(r31)
801973a8:	7f 89 50 00 	cmpw    cr7,r9,r10
801973ac:	40 9d 00 08 	ble     cr7,801973b4 <imin+0x28>
801973b0:	7d 49 53 78 	mr      r9,r10
801973b4:	7d 23 4b 78 	mr      r3,r9
801973b8:	39 7f 00 18 	addi    r11,r31,24
801973bc:	83 eb ff fc 	lwz     r31,-4(r11)
801973c0:	7d 61 5b 78 	mr      r1,r11
801973c4:	4e 80 00 20 	blr


8019734c <imax>:

8019734c:	94 21 ff e8 	stwu    r1,-24(r1)
80197350:	93 e1 00 14 	stw     r31,20(r1)
80197354:	7c 3f 0b 78 	mr      r31,r1
80197358:	90 7f 00 08 	stw     r3,8(r31)
8019735c:	90 9f 00 0c 	stw     r4,12(r31)
80197360:	81 5f 00 08 	lwz     r10,8(r31)
80197364:	81 3f 00 0c 	lwz     r9,12(r31)
80197368:	7f 89 50 00 	cmpw    cr7,r9,r10
8019736c:	40 9c 00 08 	bge     cr7,80197374 <imax+0x28>
80197370:	7d 49 53 78 	mr      r9,r10
80197374:	7d 23 4b 78 	mr      r3,r9
80197378:	39 7f 00 18 	addi    r11,r31,24
8019737c:	83 eb ff fc 	lwz     r31,-4(r11)
80197380:	7d 61 5b 78 	mr      r1,r11
80197384:	4e 80 00 20 	blr


801971ac <fmin>:

801971ac:	94 21 ff e8 	stwu    r1,-24(r1)
801971b0:	93 e1 00 14 	stw     r31,20(r1)
801971b4:	7c 3f 0b 78 	mr      r31,r1
801971b8:	d0 3f 00 08 	stfs    f1,8(r31)
801971bc:	d0 5f 00 0c 	stfs    f2,12(r31)
801971c0:	c1 bf 00 08 	lfs     f13,8(r31)
801971c4:	c0 1f 00 0c 	lfs     f0,12(r31)
801971c8:	ff 8d 00 00 	fcmpu   cr7,f13,f0
801971cc:	40 9c 00 0c 	bge     cr7,801971d8 <fmin+0x2c>
801971d0:	c0 1f 00 08 	lfs     f0,8(r31)
801971d4:	48 00 00 08 	b       801971dc <fmin+0x30>
801971d8:	c0 1f 00 0c 	lfs     f0,12(r31)
801971dc:	fc 20 00 90 	fmr     f1,f0
801971e0:	39 7f 00 18 	addi    r11,r31,24
801971e4:	83 eb ff fc 	lwz     r31,-4(r11)
801971e8:	7d 61 5b 78 	mr      r1,r11
801971ec:	4e 80 00 20 	blr


801971f4 <fmax>:

801971f4:	94 21 ff e8 	stwu    r1,-24(r1)
801971f8:	93 e1 00 14 	stw     r31,20(r1)
801971fc:	7c 3f 0b 78 	mr      r31,r1
80197200:	d0 3f 00 08 	stfs    f1,8(r31)
80197204:	d0 5f 00 0c 	stfs    f2,12(r31)
80197208:	c1 bf 00 08 	lfs     f13,8(r31)
8019720c:	c0 1f 00 0c 	lfs     f0,12(r31)
80197210:	ff 8d 00 00 	fcmpu   cr7,f13,f0
80197214:	40 9d 00 0c 	ble     cr7,80197220 <fmax+0x2c>
80197218:	c0 1f 00 08 	lfs     f0,8(r31)
8019721c:	48 00 00 08 	b       80197224 <fmax+0x30>
80197220:	c0 1f 00 0c 	lfs     f0,12(r31)
80197224:	fc 20 00 90 	fmr     f1,f0
80197228:	39 7f 00 18 	addi    r11,r31,24
8019722c:	83 eb ff fc 	lwz     r31,-4(r11)
80197230:	7d 61 5b 78 	mr      r1,r11
80197234:	4e 80 00 20 	blr


80197520 <stream>:

80197520:	00 00 00 00 	.long 0x0


80197518 <menu>:

80197518:	00 00 00 00 	.long 0x0


80197510 <numLines>:

80197510:	00 00 00 00 	.long 0x0


80197508 <maxLines>:

80197508:	00 00 00 00 	.long 0x0


8019723c <defaultLine>:



80197308 <defaultMenu>:

80197308:	00 00 00 01 	.long 0x1
8019730c:	00 00 00 00 	.long 0x0
80197310:	80 19 72 3c 	lwz     r0,29244(r25)
80197328:	00 00 00 09 	.long 0x9


801967a4 <print>:

801967a4:	94 21 ff b8 	stwu    r1,-72(r1)
801967a8:	7c 08 02 a6 	mflr    r0
801967ac:	90 01 00 4c 	stw     r0,76(r1)
801967b0:	93 e1 00 44 	stw     r31,68(r1)
801967b4:	7c 3f 0b 78 	mr      r31,r1
801967b8:	90 7f 00 38 	stw     r3,56(r31)
801967bc:	3d 20 80 19 	lis     r9,-32743
801967c0:	81 29 75 68 	lwz     r9,30056(r9)
801967c4:	80 7f 00 38 	lwz     r3,56(r31)
801967c8:	7d 29 03 a6 	mtctr   r9
801967cc:	4e 80 04 21 	bctrl
801967d0:	7c 6a 1b 78 	mr      r10,r3
801967d4:	3d 20 88 88 	lis     r9,-30584
801967d8:	61 29 88 89 	ori     r9,r9,34953
801967dc:	7d 2a 48 16 	mulhwu  r9,r10,r9
801967e0:	55 29 d9 7e 	rlwinm  r9,r9,27,5,31
801967e4:	39 29 00 01 	addi    r9,r9,1
801967e8:	91 3f 00 10 	stw     r9,16(r31)
801967ec:	48 00 0c 6d 	bl      80197458 <getHeapSize>
801967f0:	7c 6a 1b 78 	mr      r10,r3
801967f4:	3d 20 88 88 	lis     r9,-30584
801967f8:	61 29 88 89 	ori     r9,r9,34953
801967fc:	7d 2a 48 16 	mulhwu  r9,r10,r9
80196800:	55 2a c2 3e 	rlwinm  r10,r9,24,8,31
80196804:	3d 20 80 19 	lis     r9,-32743
80196808:	91 49 75 08 	stw     r10,29960(r9)
8019680c:	3d 20 80 19 	lis     r9,-32743
80196810:	81 29 75 08 	lwz     r9,29960(r9)
80196814:	7d 23 4b 78 	mr      r3,r9
80196818:	38 80 00 1b 	li      r4,27
8019681c:	48 00 0b 71 	bl      8019738c <imin>
80196820:	7c 69 1b 78 	mr      r9,r3
80196824:	7d 2a 4b 78 	mr      r10,r9
80196828:	3d 20 80 19 	lis     r9,-32743
8019682c:	91 49 75 08 	stw     r10,29960(r9)
80196830:	3d 20 80 19 	lis     r9,-32743
80196834:	81 49 75 10 	lwz     r10,29968(r9)
80196838:	81 3f 00 10 	lwz     r9,16(r31)
8019683c:	7d 4a 4a 14 	add     r10,r10,r9
80196840:	3d 20 80 19 	lis     r9,-32743
80196844:	81 29 75 08 	lwz     r9,29960(r9)
80196848:	7f 8a 48 40 	cmplw   cr7,r10,r9
8019684c:	40 9d 00 ac 	ble     cr7,801968f8 <print+0x154>
80196850:	3d 20 80 19 	lis     r9,-32743
80196854:	81 49 75 10 	lwz     r10,29968(r9)
80196858:	81 3f 00 10 	lwz     r9,16(r31)
8019685c:	7d 4a 4a 14 	add     r10,r10,r9
80196860:	3d 20 80 19 	lis     r9,-32743
80196864:	81 29 75 08 	lwz     r9,29960(r9)
80196868:	7d 29 50 50 	subf    r9,r9,r10
8019686c:	91 3f 00 14 	stw     r9,20(r31)
80196870:	3d 20 80 19 	lis     r9,-32743
80196874:	81 49 75 10 	lwz     r10,29968(r9)
80196878:	81 3f 00 14 	lwz     r9,20(r31)
8019687c:	7d 49 50 50 	subf    r10,r9,r10
80196880:	3d 20 80 19 	lis     r9,-32743
80196884:	91 49 75 10 	stw     r10,29968(r9)
80196888:	3d 20 80 19 	lis     r9,-32743
8019688c:	81 09 75 18 	lwz     r8,29976(r9)
80196890:	3d 20 80 19 	lis     r9,-32743
80196894:	81 49 75 18 	lwz     r10,29976(r9)
80196898:	81 3f 00 14 	lwz     r9,20(r31)
8019689c:	55 29 28 34 	rlwinm  r9,r9,5,0,26
801968a0:	7d 4a 4a 14 	add     r10,r10,r9
801968a4:	3d 20 80 19 	lis     r9,-32743
801968a8:	81 29 75 10 	lwz     r9,29968(r9)
801968ac:	55 29 28 34 	rlwinm  r9,r9,5,0,26
801968b0:	7d 03 43 78 	mr      r3,r8
801968b4:	7d 44 53 78 	mr      r4,r10
801968b8:	7d 25 4b 78 	mr      r5,r9
801968bc:	48 00 07 85 	bl      80197040 <memcpy>
801968c0:	3d 20 80 19 	lis     r9,-32743
801968c4:	81 09 75 20 	lwz     r8,29984(r9)
801968c8:	3d 20 80 19 	lis     r9,-32743
801968cc:	81 49 75 20 	lwz     r10,29984(r9)
801968d0:	81 3f 00 14 	lwz     r9,20(r31)
801968d4:	55 29 30 32 	rlwinm  r9,r9,6,0,25
801968d8:	7d 4a 4a 14 	add     r10,r10,r9
801968dc:	3d 20 80 19 	lis     r9,-32743
801968e0:	81 29 75 10 	lwz     r9,29968(r9)
801968e4:	55 29 30 32 	rlwinm  r9,r9,6,0,25
801968e8:	7d 03 43 78 	mr      r3,r8
801968ec:	7d 44 53 78 	mr      r4,r10
801968f0:	7d 25 4b 78 	mr      r5,r9
801968f4:	48 00 07 4d 	bl      80197040 <memcpy>
801968f8:	3d 20 80 19 	lis     r9,-32743
801968fc:	81 49 75 18 	lwz     r10,29976(r9)
80196900:	3d 20 80 19 	lis     r9,-32743
80196904:	81 09 75 10 	lwz     r8,29968(r9)
80196908:	81 3f 00 10 	lwz     r9,16(r31)
8019690c:	7d 28 4a 14 	add     r9,r8,r9
80196910:	39 29 00 01 	addi    r9,r9,1
80196914:	55 29 28 34 	rlwinm  r9,r9,5,0,26
80196918:	7d 43 53 78 	mr      r3,r10
8019691c:	7d 24 4b 78 	mr      r4,r9
80196920:	48 00 04 b5 	bl      80196dd4 <realloc>
80196924:	7c 6a 1b 78 	mr      r10,r3
80196928:	3d 20 80 19 	lis     r9,-32743
8019692c:	91 49 75 18 	stw     r10,29976(r9)
80196930:	3d 20 80 19 	lis     r9,-32743
80196934:	81 49 75 20 	lwz     r10,29984(r9)
80196938:	3d 20 80 19 	lis     r9,-32743
8019693c:	81 09 75 10 	lwz     r8,29968(r9)
80196940:	81 3f 00 10 	lwz     r9,16(r31)
80196944:	7d 28 4a 14 	add     r9,r8,r9
80196948:	55 29 30 32 	rlwinm  r9,r9,6,0,25
8019694c:	7d 43 53 78 	mr      r3,r10
80196950:	7d 24 4b 78 	mr      r4,r9
80196954:	48 00 04 81 	bl      80196dd4 <realloc>
80196958:	7c 6a 1b 78 	mr      r10,r3
8019695c:	3d 20 80 19 	lis     r9,-32743
80196960:	91 49 75 20 	stw     r10,29984(r9)
80196964:	3d 20 80 19 	lis     r9,-32743
80196968:	81 29 75 18 	lwz     r9,29976(r9)
8019696c:	2f 89 00 00 	cmpwi   cr7,r9,0
80196970:	41 9e 00 14 	beq     cr7,80196984 <print+0x1e0>
80196974:	3d 20 80 19 	lis     r9,-32743
80196978:	81 29 75 20 	lwz     r9,29984(r9)
8019697c:	2f 89 00 00 	cmpwi   cr7,r9,0
80196980:	40 9e 00 0c 	bne     cr7,8019698c <print+0x1e8>
80196984:	48 00 0a a9 	bl      8019742c <clear>
80196988:	48 00 01 d4 	b       80196b5c <print+0x3b8>
8019698c:	39 20 00 00 	li      r9,0
80196990:	91 3f 00 08 	stw     r9,8(r31)
80196994:	48 00 00 90 	b       80196a24 <print+0x280>
80196998:	3d 20 80 19 	lis     r9,-32743
8019699c:	81 49 75 20 	lwz     r10,29984(r9)
801969a0:	3d 20 80 19 	lis     r9,-32743
801969a4:	81 29 75 10 	lwz     r9,29968(r9)
801969a8:	55 29 30 32 	rlwinm  r9,r9,6,0,25
801969ac:	7d 2a 4a 14 	add     r9,r10,r9
801969b0:	7d 23 4b 78 	mr      r3,r9
801969b4:	38 80 00 00 	li      r4,0
801969b8:	38 a0 00 40 	li      r5,64
801969bc:	48 00 06 1d 	bl      80196fd8 <memset>
801969c0:	3d 20 80 19 	lis     r9,-32743
801969c4:	81 29 75 70 	lwz     r9,30064(r9)
801969c8:	3d 40 80 19 	lis     r10,-32743
801969cc:	81 0a 75 20 	lwz     r8,29984(r10)
801969d0:	3d 40 80 19 	lis     r10,-32743
801969d4:	81 4a 75 10 	lwz     r10,29968(r10)
801969d8:	55 4a 30 32 	rlwinm  r10,r10,6,0,25
801969dc:	7d 08 52 14 	add     r8,r8,r10
801969e0:	81 5f 00 08 	lwz     r10,8(r31)
801969e4:	1d 4a 00 3c 	mulli   r10,r10,60
801969e8:	80 ff 00 38 	lwz     r7,56(r31)
801969ec:	7d 47 52 14 	add     r10,r7,r10
801969f0:	7d 03 43 78 	mr      r3,r8
801969f4:	7d 44 53 78 	mr      r4,r10
801969f8:	38 a0 00 3c 	li      r5,60
801969fc:	7d 29 03 a6 	mtctr   r9
80196a00:	4e 80 04 21 	bctrl
80196a04:	3d 20 80 19 	lis     r9,-32743
80196a08:	81 29 75 10 	lwz     r9,29968(r9)
80196a0c:	39 49 00 01 	addi    r10,r9,1
80196a10:	3d 20 80 19 	lis     r9,-32743
80196a14:	91 49 75 10 	stw     r10,29968(r9)
80196a18:	81 3f 00 08 	lwz     r9,8(r31)
80196a1c:	39 29 00 01 	addi    r9,r9,1
80196a20:	91 3f 00 08 	stw     r9,8(r31)
80196a24:	81 5f 00 08 	lwz     r10,8(r31)
80196a28:	81 3f 00 10 	lwz     r9,16(r31)
80196a2c:	7f 8a 48 40 	cmplw   cr7,r10,r9
80196a30:	41 9c ff 68 	blt     cr7,80196998 <print+0x1f4>
80196a34:	39 20 00 00 	li      r9,0
80196a38:	91 3f 00 0c 	stw     r9,12(r31)
80196a3c:	48 00 00 98 	b       80196ad4 <print+0x330>
80196a40:	39 20 00 00 	li      r9,0
80196a44:	91 3f 00 18 	stw     r9,24(r31)
80196a48:	39 20 00 00 	li      r9,0
80196a4c:	91 3f 00 1c 	stw     r9,28(r31)
80196a50:	39 20 00 00 	li      r9,0
80196a54:	91 3f 00 20 	stw     r9,32(r31)
80196a58:	39 20 00 00 	li      r9,0
80196a5c:	91 3f 00 24 	stw     r9,36(r31)
80196a60:	39 20 00 00 	li      r9,0
80196a64:	91 3f 00 28 	stw     r9,40(r31)
80196a68:	39 20 00 00 	li      r9,0
80196a6c:	91 3f 00 2c 	stw     r9,44(r31)
80196a70:	39 20 00 00 	li      r9,0
80196a74:	91 3f 00 30 	stw     r9,48(r31)
80196a78:	39 20 00 00 	li      r9,0
80196a7c:	91 3f 00 34 	stw     r9,52(r31)
80196a80:	39 20 00 01 	li      r9,1
80196a84:	91 3f 00 18 	stw     r9,24(r31)
80196a88:	3d 20 80 19 	lis     r9,-32743
80196a8c:	81 49 75 20 	lwz     r10,29984(r9)
80196a90:	81 3f 00 0c 	lwz     r9,12(r31)
80196a94:	55 29 30 32 	rlwinm  r9,r9,6,0,25
80196a98:	7d 2a 4a 14 	add     r9,r10,r9
80196a9c:	91 3f 00 20 	stw     r9,32(r31)
80196aa0:	3d 20 80 19 	lis     r9,-32743
80196aa4:	81 49 75 18 	lwz     r10,29976(r9)
80196aa8:	81 3f 00 0c 	lwz     r9,12(r31)
80196aac:	55 29 28 34 	rlwinm  r9,r9,5,0,26
80196ab0:	7d 4a 4a 14 	add     r10,r10,r9
80196ab4:	39 3f 00 18 	addi    r9,r31,24
80196ab8:	7d 43 53 78 	mr      r3,r10
80196abc:	7d 24 4b 78 	mr      r4,r9
80196ac0:	38 a0 00 20 	li      r5,32
80196ac4:	48 00 05 7d 	bl      80197040 <memcpy>
80196ac8:	81 3f 00 0c 	lwz     r9,12(r31)
80196acc:	39 29 00 01 	addi    r9,r9,1
80196ad0:	91 3f 00 0c 	stw     r9,12(r31)
80196ad4:	3d 20 80 19 	lis     r9,-32743
80196ad8:	81 29 75 10 	lwz     r9,29968(r9)
80196adc:	81 5f 00 0c 	lwz     r10,12(r31)
80196ae0:	7f 8a 48 40 	cmplw   cr7,r10,r9
80196ae4:	41 9c ff 5c 	blt     cr7,80196a40 <print+0x29c>
80196ae8:	39 20 00 00 	li      r9,0
80196aec:	91 3f 00 18 	stw     r9,24(r31)
80196af0:	39 20 00 00 	li      r9,0
80196af4:	91 3f 00 1c 	stw     r9,28(r31)
80196af8:	39 20 00 00 	li      r9,0
80196afc:	91 3f 00 20 	stw     r9,32(r31)
80196b00:	39 20 00 00 	li      r9,0
80196b04:	91 3f 00 24 	stw     r9,36(r31)
80196b08:	39 20 00 00 	li      r9,0
80196b0c:	91 3f 00 28 	stw     r9,40(r31)
80196b10:	39 20 00 00 	li      r9,0
80196b14:	91 3f 00 2c 	stw     r9,44(r31)
80196b18:	39 20 00 00 	li      r9,0
80196b1c:	91 3f 00 30 	stw     r9,48(r31)
80196b20:	39 20 00 00 	li      r9,0
80196b24:	91 3f 00 34 	stw     r9,52(r31)
80196b28:	39 20 00 09 	li      r9,9
80196b2c:	91 3f 00 18 	stw     r9,24(r31)
80196b30:	3d 20 80 19 	lis     r9,-32743
80196b34:	81 49 75 18 	lwz     r10,29976(r9)
80196b38:	3d 20 80 19 	lis     r9,-32743
80196b3c:	81 29 75 10 	lwz     r9,29968(r9)
80196b40:	55 29 28 34 	rlwinm  r9,r9,5,0,26
80196b44:	7d 4a 4a 14 	add     r10,r10,r9
80196b48:	39 3f 00 18 	addi    r9,r31,24
80196b4c:	7d 43 53 78 	mr      r3,r10
80196b50:	7d 24 4b 78 	mr      r4,r9
80196b54:	38 a0 00 20 	li      r5,32
80196b58:	48 00 04 e9 	bl      80197040 <memcpy>
80196b5c:	39 7f 00 48 	addi    r11,r31,72
80196b60:	80 0b 00 04 	lwz     r0,4(r11)
80196b64:	7c 08 03 a6 	mtlr    r0
80196b68:	83 eb ff fc 	lwz     r31,-4(r11)
80196b6c:	7d 61 5b 78 	mr      r1,r11
80196b70:	4e 80 00 20 	blr


8019742c <clear>:

8019742c:	94 21 ff f0 	stwu    r1,-16(r1)
80197430:	93 e1 00 0c 	stw     r31,12(r1)
80197434:	7c 3f 0b 78 	mr      r31,r1
80197438:	3d 20 80 19 	lis     r9,-32743
8019743c:	39 40 00 00 	li      r10,0
80197440:	91 49 75 10 	stw     r10,29968(r9)
80197444:	39 7f 00 10 	addi    r11,r31,16
80197448:	83 eb ff fc 	lwz     r31,-4(r11)
8019744c:	7d 61 5b 78 	mr      r1,r11
80197450:	4e 80 00 20 	blr


80197104 <_display>:

80197104:	94 21 ff f0 	stwu    r1,-16(r1)
80197108:	93 e1 00 0c 	stw     r31,12(r1)
8019710c:	7c 3f 0b 78 	mr      r31,r1
80197110:	3d 20 80 19 	lis     r9,-32743
80197114:	81 29 75 10 	lwz     r9,29968(r9)
80197118:	2f 89 00 00 	cmpwi   cr7,r9,0
8019711c:	40 9e 00 14 	bne     cr7,80197130 <_display+0x2c>
80197120:	3d 20 80 19 	lis     r9,-32743
80197124:	3d 40 80 19 	lis     r10,-32743
80197128:	39 4a 73 08 	addi    r10,r10,29448
8019712c:	91 49 75 18 	stw     r10,29976(r9)
80197130:	3d 20 80 4d 	lis     r9,-32691
80197134:	61 29 68 90 	ori     r9,r9,26768
80197138:	3d 40 80 19 	lis     r10,-32743
8019713c:	81 4a 75 18 	lwz     r10,29976(r10)
80197140:	91 49 00 00 	stw     r10,0(r9)
80197144:	39 7f 00 10 	addi    r11,r31,16
80197148:	83 eb ff fc 	lwz     r31,-4(r11)
8019714c:	7d 61 5b 78 	mr      r1,r11
80197150:	4e 80 00 20 	blr


80196e68 <rand>:

80196e68:	94 21 ff d8 	stwu    r1,-40(r1)
80196e6c:	7c 08 02 a6 	mflr    r0
80196e70:	90 01 00 2c 	stw     r0,44(r1)
80196e74:	93 e1 00 24 	stw     r31,36(r1)
80196e78:	7c 3f 0b 78 	mr      r31,r1
80196e7c:	3d 20 80 38 	lis     r9,-32712
80196e80:	61 29 05 80 	ori     r9,r9,1408
80196e84:	91 3f 00 08 	stw     r9,8(r31)
80196e88:	81 3f 00 08 	lwz     r9,8(r31)
80196e8c:	38 60 27 10 	li      r3,10000
80196e90:	7d 29 03 a6 	mtctr   r9
80196e94:	4e 80 04 21 	bctrl
80196e98:	7c 6a 1b 78 	mr      r10,r3
80196e9c:	3d 20 43 30 	lis     r9,17200
80196ea0:	3d 00 80 19 	lis     r8,-32743
80196ea4:	c8 08 76 b8 	lfd     f0,30392(r8)
80196ea8:	91 5f 00 1c 	stw     r10,28(r31)
80196eac:	91 3f 00 18 	stw     r9,24(r31)
80196eb0:	c9 bf 00 18 	lfd     f13,24(r31)
80196eb4:	fc 0d 00 28 	fsub    f0,f13,f0
80196eb8:	fd a0 00 18 	frsp    f13,f0
80196ebc:	3d 20 80 19 	lis     r9,-32743
80196ec0:	c0 09 76 c0 	lfs     f0,30400(r9)
80196ec4:	ec 0d 00 24 	fdivs   f0,f13,f0
80196ec8:	fc 20 00 90 	fmr     f1,f0
80196ecc:	39 7f 00 28 	addi    r11,r31,40
80196ed0:	80 0b 00 04 	lwz     r0,4(r11)
80196ed4:	7c 08 03 a6 	mtlr    r0
80196ed8:	83 eb ff fc 	lwz     r31,-4(r11)
80196edc:	7d 61 5b 78 	mr      r1,r11
80196ee0:	4e 80 00 20 	blr


801970a8 <uniform>:

801970a8:	94 21 ff e8 	stwu    r1,-24(r1)
801970ac:	7c 08 02 a6 	mflr    r0
801970b0:	90 01 00 1c 	stw     r0,28(r1)
801970b4:	93 e1 00 14 	stw     r31,20(r1)
801970b8:	7c 3f 0b 78 	mr      r31,r1
801970bc:	d0 3f 00 08 	stfs    f1,8(r31)
801970c0:	d0 5f 00 0c 	stfs    f2,12(r31)
801970c4:	4b ff fd a5 	bl      80196e68 <rand>
801970c8:	fd a0 08 90 	fmr     f13,f1
801970cc:	c1 9f 00 0c 	lfs     f12,12(r31)
801970d0:	c0 1f 00 08 	lfs     f0,8(r31)
801970d4:	ec 0c 00 28 	fsubs   f0,f12,f0
801970d8:	ed ad 00 32 	fmuls   f13,f13,f0
801970dc:	c0 1f 00 08 	lfs     f0,8(r31)
801970e0:	ec 0d 00 2a 	fadds   f0,f13,f0
801970e4:	fc 20 00 90 	fmr     f1,f0
801970e8:	39 7f 00 18 	addi    r11,r31,24
801970ec:	80 0b 00 04 	lwz     r0,4(r11)
801970f0:	7c 08 03 a6 	mtlr    r0
801970f4:	83 eb ff fc 	lwz     r31,-4(r11)
801970f8:	7d 61 5b 78 	mr      r1,r11
801970fc:	4e 80 00 20 	blr


80196d20 <sample>:

80196d20:	94 21 ff d8 	stwu    r1,-40(r1)
80196d24:	7c 08 02 a6 	mflr    r0
80196d28:	90 01 00 2c 	stw     r0,44(r1)
80196d2c:	93 e1 00 24 	stw     r31,36(r1)
80196d30:	7c 3f 0b 78 	mr      r31,r1
80196d34:	90 7f 00 18 	stw     r3,24(r31)
80196d38:	90 9f 00 1c 	stw     r4,28(r31)
80196d3c:	48 00 01 2d 	bl      80196e68 <rand>
80196d40:	d0 3f 00 10 	stfs    f1,16(r31)
80196d44:	3d 20 80 19 	lis     r9,-32743
80196d48:	c0 09 76 c4 	lfs     f0,30404(r9)
80196d4c:	d0 1f 00 08 	stfs    f0,8(r31)
80196d50:	39 20 00 00 	li      r9,0
80196d54:	91 3f 00 0c 	stw     r9,12(r31)
80196d58:	48 00 00 48 	b       80196da0 <sample+0x80>
80196d5c:	81 3f 00 0c 	lwz     r9,12(r31)
80196d60:	55 29 10 3a 	rlwinm  r9,r9,2,0,29
80196d64:	81 5f 00 18 	lwz     r10,24(r31)
80196d68:	7d 2a 4a 14 	add     r9,r10,r9
80196d6c:	c0 09 00 00 	lfs     f0,0(r9)
80196d70:	c1 bf 00 08 	lfs     f13,8(r31)
80196d74:	ec 0d 00 2a 	fadds   f0,f13,f0
80196d78:	d0 1f 00 08 	stfs    f0,8(r31)
80196d7c:	c1 bf 00 10 	lfs     f13,16(r31)
80196d80:	c0 1f 00 08 	lfs     f0,8(r31)
80196d84:	ff 8d 00 00 	fcmpu   cr7,f13,f0
80196d88:	40 9c 00 0c 	bge     cr7,80196d94 <sample+0x74>
80196d8c:	81 3f 00 0c 	lwz     r9,12(r31)
80196d90:	48 00 00 24 	b       80196db4 <sample+0x94>
80196d94:	81 3f 00 0c 	lwz     r9,12(r31)
80196d98:	39 29 00 01 	addi    r9,r9,1
80196d9c:	91 3f 00 0c 	stw     r9,12(r31)
80196da0:	81 5f 00 0c 	lwz     r10,12(r31)
80196da4:	81 3f 00 1c 	lwz     r9,28(r31)
80196da8:	7f 8a 48 40 	cmplw   cr7,r10,r9
80196dac:	41 9c ff b0 	blt     cr7,80196d5c <sample+0x3c>
80196db0:	39 20 00 00 	li      r9,0
80196db4:	7d 23 4b 78 	mr      r3,r9
80196db8:	39 7f 00 28 	addi    r11,r31,40
80196dbc:	80 0b 00 04 	lwz     r0,4(r11)
80196dc0:	7c 08 03 a6 	mtlr    r0
80196dc4:	83 eb ff fc 	lwz     r31,-4(r11)
80196dc8:	7d 61 5b 78 	mr      r1,r11
80196dcc:	4e 80 00 20 	blr


80197570 <strncpy>:

80197570:	80 32 5a 0c 	lwz     r1,23052(r18)


80197568 <strlen>:

80197568:	80 32 5b 04 	lwz     r1,23300(r18)


80197040 <memcpy>:

80197040:	94 21 ff d0 	stwu    r1,-48(r1)
80197044:	7c 08 02 a6 	mflr    r0
80197048:	90 01 00 34 	stw     r0,52(r1)
8019704c:	93 e1 00 2c 	stw     r31,44(r1)
80197050:	7c 3f 0b 78 	mr      r31,r1
80197054:	90 7f 00 18 	stw     r3,24(r31)
80197058:	90 9f 00 1c 	stw     r4,28(r31)
8019705c:	90 bf 00 20 	stw     r5,32(r31)
80197060:	3d 20 80 00 	lis     r9,-32768
80197064:	61 29 31 f4 	ori     r9,r9,12788
80197068:	91 3f 00 08 	stw     r9,8(r31)
8019706c:	81 3f 00 08 	lwz     r9,8(r31)
80197070:	80 7f 00 18 	lwz     r3,24(r31)
80197074:	80 9f 00 1c 	lwz     r4,28(r31)
80197078:	80 bf 00 20 	lwz     r5,32(r31)
8019707c:	7d 29 03 a6 	mtctr   r9
80197080:	4e 80 04 21 	bctrl
80197084:	7c 69 1b 78 	mr      r9,r3
80197088:	7d 23 4b 78 	mr      r3,r9
8019708c:	39 7f 00 30 	addi    r11,r31,48
80197090:	80 0b 00 04 	lwz     r0,4(r11)
80197094:	7c 08 03 a6 	mtlr    r0
80197098:	83 eb ff fc 	lwz     r31,-4(r11)
8019709c:	7d 61 5b 78 	mr      r1,r11
801970a0:	4e 80 00 20 	blr


80196fd8 <memset>:

80196fd8:	94 21 ff d0 	stwu    r1,-48(r1)
80196fdc:	7c 08 02 a6 	mflr    r0
80196fe0:	90 01 00 34 	stw     r0,52(r1)
80196fe4:	93 e1 00 2c 	stw     r31,44(r1)
80196fe8:	7c 3f 0b 78 	mr      r31,r1
80196fec:	90 7f 00 18 	stw     r3,24(r31)
80196ff0:	90 9f 00 1c 	stw     r4,28(r31)
80196ff4:	90 bf 00 20 	stw     r5,32(r31)
80196ff8:	3d 20 80 00 	lis     r9,-32768
80196ffc:	61 29 31 30 	ori     r9,r9,12592
80197000:	91 3f 00 08 	stw     r9,8(r31)
80197004:	81 3f 00 08 	lwz     r9,8(r31)
80197008:	80 7f 00 18 	lwz     r3,24(r31)
8019700c:	80 9f 00 1c 	lwz     r4,28(r31)
80197010:	80 bf 00 20 	lwz     r5,32(r31)
80197014:	7d 29 03 a6 	mtctr   r9
80197018:	4e 80 04 21 	bctrl
8019701c:	7c 69 1b 78 	mr      r9,r3
80197020:	7d 23 4b 78 	mr      r3,r9
80197024:	39 7f 00 30 	addi    r11,r31,48
80197028:	80 0b 00 04 	lwz     r0,4(r11)
8019702c:	7c 08 03 a6 	mtlr    r0
80197030:	83 eb ff fc 	lwz     r31,-4(r11)
80197034:	7d 61 5b 78 	mr      r1,r11
80197038:	4e 80 00 20 	blr


80197550 <OSCreateHeap>:

80197550:	80 34 40 e8 	lwz     r1,16616(r20)


80197548 <OSAllocFromHeap>:

80197548:	80 34 3e f0 	lwz     r1,16112(r20)


80197540 <OSFreeToHeap>:

80197540:	80 34 3f ec 	lwz     r1,16364(r20)


80197538 <heapHandle>:

80197538:	00 00 00 00 	.long 0x0


80197530 <init>:

80197530:	00 00 00 00 	.long 0x0


80197528 <heapSize>:

80197528:	00 00 00 00 	.long 0x0


80196ee8 <initHeap>:

80196ee8:	94 21 ff e8 	stwu    r1,-24(r1)
80196eec:	7c 08 02 a6 	mflr    r0
80196ef0:	90 01 00 1c 	stw     r0,28(r1)
80196ef4:	93 e1 00 14 	stw     r31,20(r1)
80196ef8:	7c 3f 0b 78 	mr      r31,r1
80196efc:	90 7f 00 08 	stw     r3,8(r31)
80196f00:	90 9f 00 0c 	stw     r4,12(r31)
80196f04:	81 5f 00 0c 	lwz     r10,12(r31)
80196f08:	81 3f 00 08 	lwz     r9,8(r31)
80196f0c:	7d 49 50 50 	subf    r10,r9,r10
80196f10:	3d 20 80 19 	lis     r9,-32743
80196f14:	91 49 75 28 	stw     r10,29992(r9)
80196f18:	3d 20 80 19 	lis     r9,-32743
80196f1c:	81 29 75 50 	lwz     r9,30032(r9)
80196f20:	80 7f 00 08 	lwz     r3,8(r31)
80196f24:	80 9f 00 0c 	lwz     r4,12(r31)
80196f28:	7d 29 03 a6 	mtctr   r9
80196f2c:	4e 80 04 21 	bctrl
80196f30:	7c 6a 1b 78 	mr      r10,r3
80196f34:	3d 20 80 19 	lis     r9,-32743
80196f38:	91 49 75 38 	stw     r10,30008(r9)
80196f3c:	3d 20 80 19 	lis     r9,-32743
80196f40:	39 40 00 01 	li      r10,1
80196f44:	91 49 75 30 	stw     r10,30000(r9)
80196f48:	39 7f 00 18 	addi    r11,r31,24
80196f4c:	80 0b 00 04 	lwz     r0,4(r11)
80196f50:	7c 08 03 a6 	mtlr    r0
80196f54:	83 eb ff fc 	lwz     r31,-4(r11)
80196f58:	7d 61 5b 78 	mr      r1,r11
80196f5c:	4e 80 00 20 	blr


80196f64 <malloc>:

80196f64:	94 21 ff e8 	stwu    r1,-24(r1)
80196f68:	7c 08 02 a6 	mflr    r0
80196f6c:	90 01 00 1c 	stw     r0,28(r1)
80196f70:	93 e1 00 14 	stw     r31,20(r1)
80196f74:	7c 3f 0b 78 	mr      r31,r1
80196f78:	90 7f 00 08 	stw     r3,8(r31)
80196f7c:	3d 20 80 19 	lis     r9,-32743
80196f80:	81 29 75 30 	lwz     r9,30000(r9)
80196f84:	2f 89 00 00 	cmpwi   cr7,r9,0
80196f88:	40 9e 00 0c 	bne     cr7,80196f94 <malloc+0x30>
80196f8c:	39 20 00 00 	li      r9,0
80196f90:	48 00 00 28 	b       80196fb8 <malloc+0x54>
80196f94:	3d 20 80 19 	lis     r9,-32743
80196f98:	81 29 75 48 	lwz     r9,30024(r9)
80196f9c:	3d 40 80 19 	lis     r10,-32743
80196fa0:	81 4a 75 38 	lwz     r10,30008(r10)
80196fa4:	7d 43 53 78 	mr      r3,r10
80196fa8:	80 9f 00 08 	lwz     r4,8(r31)
80196fac:	7d 29 03 a6 	mtctr   r9
80196fb0:	4e 80 04 21 	bctrl
80196fb4:	7c 69 1b 78 	mr      r9,r3
80196fb8:	7d 23 4b 78 	mr      r3,r9
80196fbc:	39 7f 00 18 	addi    r11,r31,24
80196fc0:	80 0b 00 04 	lwz     r0,4(r11)
80196fc4:	7c 08 03 a6 	mtlr    r0
80196fc8:	83 eb ff fc 	lwz     r31,-4(r11)
80196fcc:	7d 61 5b 78 	mr      r1,r11
80196fd0:	4e 80 00 20 	blr


80196dd4 <realloc>:

80196dd4:	94 21 ff d8 	stwu    r1,-40(r1)
80196dd8:	7c 08 02 a6 	mflr    r0
80196ddc:	90 01 00 2c 	stw     r0,44(r1)
80196de0:	93 e1 00 24 	stw     r31,36(r1)
80196de4:	7c 3f 0b 78 	mr      r31,r1
80196de8:	90 7f 00 18 	stw     r3,24(r31)
80196dec:	90 9f 00 1c 	stw     r4,28(r31)
80196df0:	81 3f 00 18 	lwz     r9,24(r31)
80196df4:	2f 89 00 00 	cmpwi   cr7,r9,0
80196df8:	40 9e 00 14 	bne     cr7,80196e0c <realloc+0x38>
80196dfc:	80 7f 00 1c 	lwz     r3,28(r31)
80196e00:	48 00 01 65 	bl      80196f64 <malloc>
80196e04:	7c 69 1b 78 	mr      r9,r3
80196e08:	48 00 00 40 	b       80196e48 <realloc+0x74>
80196e0c:	80 7f 00 1c 	lwz     r3,28(r31)
80196e10:	48 00 01 55 	bl      80196f64 <malloc>
80196e14:	90 7f 00 08 	stw     r3,8(r31)
80196e18:	81 3f 00 08 	lwz     r9,8(r31)
80196e1c:	2f 89 00 00 	cmpwi   cr7,r9,0
80196e20:	40 9e 00 0c 	bne     cr7,80196e2c <realloc+0x58>
80196e24:	81 3f 00 08 	lwz     r9,8(r31)
80196e28:	48 00 00 20 	b       80196e48 <realloc+0x74>
80196e2c:	80 7f 00 08 	lwz     r3,8(r31)
80196e30:	80 9f 00 18 	lwz     r4,24(r31)
80196e34:	80 bf 00 1c 	lwz     r5,28(r31)
80196e38:	48 00 02 09 	bl      80197040 <memcpy>
80196e3c:	80 7f 00 18 	lwz     r3,24(r31)
80196e40:	48 00 03 19 	bl      80197158 <free>
80196e44:	81 3f 00 08 	lwz     r9,8(r31)
80196e48:	7d 23 4b 78 	mr      r3,r9
80196e4c:	39 7f 00 28 	addi    r11,r31,40
80196e50:	80 0b 00 04 	lwz     r0,4(r11)
80196e54:	7c 08 03 a6 	mtlr    r0
80196e58:	83 eb ff fc 	lwz     r31,-4(r11)
80196e5c:	7d 61 5b 78 	mr      r1,r11
80196e60:	4e 80 00 20 	blr


80197158 <free>:

80197158:	94 21 ff e8 	stwu    r1,-24(r1)
8019715c:	7c 08 02 a6 	mflr    r0
80197160:	90 01 00 1c 	stw     r0,28(r1)
80197164:	93 e1 00 14 	stw     r31,20(r1)
80197168:	7c 3f 0b 78 	mr      r31,r1
8019716c:	90 7f 00 08 	stw     r3,8(r31)
80197170:	3d 20 80 19 	lis     r9,-32743
80197174:	81 29 75 40 	lwz     r9,30016(r9)
80197178:	3d 40 80 19 	lis     r10,-32743
8019717c:	81 4a 75 38 	lwz     r10,30008(r10)
80197180:	7d 43 53 78 	mr      r3,r10
80197184:	80 9f 00 08 	lwz     r4,8(r31)
80197188:	7d 29 03 a6 	mtctr   r9
8019718c:	4e 80 04 21 	bctrl
80197190:	39 7f 00 18 	addi    r11,r31,24
80197194:	80 0b 00 04 	lwz     r0,4(r11)
80197198:	7c 08 03 a6 	mtlr    r0
8019719c:	83 eb ff fc 	lwz     r31,-4(r11)
801971a0:	7d 61 5b 78 	mr      r1,r11
801971a4:	4e 80 00 20 	blr


80197458 <getHeapSize>:

80197458:	94 21 ff f0 	stwu    r1,-16(r1)
8019745c:	93 e1 00 0c 	stw     r31,12(r1)
80197460:	7c 3f 0b 78 	mr      r31,r1
80197464:	3d 20 80 19 	lis     r9,-32743
80197468:	81 29 75 28 	lwz     r9,29992(r9)
8019746c:	7d 23 4b 78 	mr      r3,r9
80197470:	39 7f 00 10 	addi    r11,r31,16
80197474:	83 eb ff fc 	lwz     r31,-4(r11)
80197478:	7d 61 5b 78 	mr      r1,r11
8019747c:	4e 80 00 20 	blr



