

80197504 <backup_reg>:

80197504:	38 21 ff 80 	addi    r1,r1,-128
80197508:	bc 61 00 0c 	stmw    r3,12(r1)
8019750c:	90 01 00 08 	stw     r0,8(r1)
80197510:	7c 00 00 26 	mfcr    r0
80197514:	90 01 00 04 	stw     r0,4(r1)
80197518:	7c 09 02 a6 	mfctr   r0
8019751c:	90 01 00 00 	stw     r0,0(r1)
80197520:	4e 80 00 20 	blr


80197524 <restore_reg>:

80197524:	80 01 00 00 	lwz     r0,0(r1)
80197528:	7c 09 03 a6 	mtctr   r0
8019752c:	80 01 00 04 	lwz     r0,4(r1)
80197530:	7c 0f f1 20 	mtcr    r0
80197534:	80 01 00 08 	lwz     r0,8(r1)
80197538:	b8 61 00 0c 	lmw     r3,12(r1)
8019753c:	38 21 00 80 	addi    r1,r1,128
80197540:	4e 80 00 20 	blr


80377998 <inject_point_0>:

80377998:	4b e1 ff 78 	b       80197910 <stack_setup_0>


80197910 <stack_setup_0>:

80197910:	38 21 ff fc 	addi    r1,r1,-4
80197914:	90 01 00 04 	stw     r0,4(r1)
80197918:	7c 08 02 a6 	mflr    r0
8019791c:	4b ff fb e9 	bl      80197504 <backup_reg>
80197920:	4b ff ca 91 	bl      801943b0 <_main>
80197924:	4b ff fc 01 	bl      80197524 <restore_reg>
80197928:	7c 08 03 a6 	mtlr    r0
8019792c:	80 01 00 04 	lwz     r0,4(r1)
80197930:	38 21 00 04 	addi    r1,r1,4
80197934:	60 00 00 00 	nop
80197938:	48 1e 00 64 	b       8037799c <inject_point_0+0x4>


801a633c <inject_point_1>:

801a633c:	4b ff 15 44 	b       80197880 <stack_setup_1>


80197880 <stack_setup_1>:

80197880:	38 21 ff fc 	addi    r1,r1,-4
80197884:	90 01 00 04 	stw     r0,4(r1)
80197888:	7c 08 02 a6 	mflr    r0
8019788c:	4b ff fc 79 	bl      80197504 <backup_reg>
80197890:	4b ff fe c5 	bl      80197754 <display>
80197894:	4b ff fc 91 	bl      80197524 <restore_reg>
80197898:	7c 08 03 a6 	mtlr    r0
8019789c:	80 01 00 04 	lwz     r0,4(r1)
801978a0:	38 21 00 04 	addi    r1,r1,4
801978a4:	60 00 00 00 	nop
801978a8:	48 00 ea 98 	b       801a6340 <inject_point_1+0x4>


80197ad0 <tests_passed>:

80197ad0:	00 00 00 01 	.long 0x1


80197ad8 <init_run>:

80197ad8:	00 00 00 00 	.long 0x0


80197ae0 <tests_run>:

80197ae0:	00 00 00 00 	.long 0x0


801910e4 <heap>:



8019758c <angles>:

8019758c:	00 00 00 00 	.long 0x0
80197590:	41 f0 00 00 	blt+    cr4,80197590 <angles+0x4>
80197594:	42 34 00 00 	bc      17,4*cr5+lt,80197594 <angles+0x8>
80197598:	42 70 00 00 	bc      19,4*cr4+lt,80197598 <angles+0xc>
8019759c:	42 b4 00 00 	.long 0x42b40000
801975a0:	42 f0 00 00 	.long 0x42f00000
801975a4:	43 07 00 00 	bc-     24,4*cr1+so,801975a4 <angles+0x18>
801975a8:	43 16 00 00 	bc-     24,4*cr5+eq,801975a8 <angles+0x1c>
801975ac:	43 34 00 00 	bc+     24,4*cr5+lt,801975ac <angles+0x20>
801975b0:	43 52 00 00 	bc-     26,4*cr4+eq,801975b0 <angles+0x24>
801975b4:	43 61 00 00 	bc+     26,gt,801975b4 <angles+0x28>
801975b8:	43 70 00 00 	bc+     26,4*cr4+lt,801975b8 <angles+0x2c>
801975bc:	43 87 00 00 	.long 0x43870000
801975c0:	43 96 00 00 	.long 0x43960000
801975c4:	43 9d 80 00 	.long 0x439d8000
801975c8:	43 a5 00 00 	.long 0x43a50000


80197174 <pts>:

80197174:	40 00 00 00 	bdnzf   lt,80197174 <pts>
80197178:	00 00 00 00 	.long 0x0
8019717c:	3f dd b2 2d 	addis   r30,r29,-19923
80197180:	3f 80 00 00 	lis     r28,0
80197184:	3f b4 fd f4 	addis   r29,r20,-524
80197188:	3f b4 fd f4 	addis   r29,r20,-524
8019718c:	3f 80 00 00 	lis     r28,0
80197190:	3f dd b2 2d 	addis   r30,r29,-19923
80197194:	00 00 00 00 	.long 0x0
80197198:	40 00 00 00 	bdnzf   lt,80197198 <pts+0x24>
8019719c:	bf 80 00 00 	stmw    r28,0(0)
801971a0:	3f dd b2 2d 	addis   r30,r29,-19923
801971a4:	bf b4 fd f4 	stmw    r29,-524(r20)
801971a8:	3f b4 fd f4 	addis   r29,r20,-524
801971ac:	bf dd b2 2d 	stmw    r30,-19923(r29)
801971b0:	3f 80 00 00 	lis     r28,0
801971b4:	c0 00 00 00 	lfs     f0,0(0)
801971b8:	00 00 00 00 	.long 0x0
801971bc:	bf dd b2 2d 	stmw    r30,-19923(r29)
801971c0:	bf 80 00 00 	stmw    r28,0(0)
801971c4:	bf b4 fd f4 	stmw    r29,-524(r20)
801971c8:	bf b4 fd f4 	stmw    r29,-524(r20)
801971cc:	bf 80 00 00 	stmw    r28,0(0)
801971d0:	bf dd b2 2d 	stmw    r30,-19923(r29)
801971d4:	00 00 00 00 	.long 0x0
801971d8:	c0 00 00 00 	lfs     f0,0(0)
801971dc:	3f 80 00 00 	lis     r28,0
801971e0:	bf dd b2 2d 	stmw    r30,-19923(r29)
801971e4:	3f b4 fd f4 	addis   r29,r20,-524
801971e8:	bf b4 fd f4 	stmw    r29,-524(r20)
801971ec:	3f dd b2 2d 	addis   r30,r29,-19923
801971f0:	bf 80 00 00 	stmw    r28,0(0)


80197718 <tan_indices>:

80197718:	00 00 00 00 	.long 0x0
8019771c:	00 00 00 01 	.long 0x1
80197720:	00 00 00 02 	.long 0x2
80197724:	00 00 00 03 	.long 0x3
80197728:	00 00 00 05 	.long 0x5
8019772c:	00 00 00 06 	.long 0x6
80197730:	00 00 00 07 	.long 0x7
80197734:	00 00 00 08 	.long 0x8
80197738:	00 00 00 09 	.long 0x9
8019773c:	00 00 00 0a 	.long 0xa
80197740:	00 00 00 0b 	.long 0xb
80197744:	00 00 00 0d 	.long 0xd
80197748:	00 00 00 0e 	.long 0xe
8019774c:	00 00 00 0f 	.long 0xf


801979e4 <asin_indices>:

801979e4:	00 00 00 01 	.long 0x1
801979e8:	00 00 00 02 	.long 0x2
801979ec:	00 00 00 03 	.long 0x3
801979f0:	00 00 00 04 	.long 0x4
801979f4:	00 00 00 0c 	.long 0xc
801979f8:	00 00 00 0d 	.long 0xd
801979fc:	00 00 00 0e 	.long 0xe
80197a00:	00 00 00 0f 	.long 0xf


80197998 <acos_indices>:

80197998:	00 00 00 00 	.long 0x0
8019799c:	00 00 00 01 	.long 0x1
801979a0:	00 00 00 02 	.long 0x2
801979a4:	00 00 00 03 	.long 0x3
801979a8:	00 00 00 04 	.long 0x4
801979ac:	00 00 00 05 	.long 0x5
801979b0:	00 00 00 06 	.long 0x6
801979b4:	00 00 00 07 	.long 0x7
801979b8:	00 00 00 08 	.long 0x8


80197a88 <atan_indices>:

80197a88:	00 00 00 00 	.long 0x0
80197a8c:	00 00 00 01 	.long 0x1
80197a90:	00 00 00 02 	.long 0x2
80197a94:	00 00 00 03 	.long 0x3


80197548 <init>:

80197548:	94 21 ff f0 	stwu    r1,-16(r1)
8019754c:	7c 08 02 a6 	mflr    r0
80197550:	90 01 00 14 	stw     r0,20(r1)
80197554:	93 e1 00 0c 	stw     r31,12(r1)
80197558:	7c 3f 0b 78 	mr      r31,r1
8019755c:	3d 20 80 19 	lis     r9,-32743
80197560:	38 69 10 e4 	addi    r3,r9,4324
80197564:	3d 20 80 19 	lis     r9,-32743
80197568:	38 89 43 ac 	addi    r4,r9,17324
8019756c:	4b ff fe fd 	bl      80197468 <initHeap>
80197570:	39 7f 00 10 	addi    r11,r31,16
80197574:	80 0b 00 04 	lwz     r0,4(r11)
80197578:	7c 08 03 a6 	mtlr    r0
8019757c:	83 eb ff fc 	lwz     r31,-4(r11)
80197580:	7d 61 5b 78 	mr      r1,r11
80197584:	4e 80 00 20 	blr


80195f90 <wiimake_section_17>:

80195f90:	61 73 73 65 	ori     r19,r11,29541
80195f94:	72 74 20 66 	andi.   r20,r19,8294
80195f98:	61 69 6c 65 	ori     r9,r11,27749
80195f9c:	64 3a 20 74 	oris    r26,r1,8308
80195fa0:	65 73 74 73 	oris    r19,r11,29811
80195fa4:	2f 74 65 73 	cmpdi   cr6,r20,25971
80195fa8:	74 4d 61 74 	andis.  r13,r2,24948
80195fac:	68 2e 63 3a 	xori    r14,r1,25402
80195fb0:	37 39 00 00 	addic.  r25,r25,0
80195fb4:	61 73 73 65 	ori     r19,r11,29541
80195fb8:	72 74 20 66 	andi.   r20,r19,8294
80195fbc:	61 69 6c 65 	ori     r9,r11,27749
80195fc0:	64 3a 20 74 	oris    r26,r1,8308
80195fc4:	65 73 74 73 	oris    r19,r11,29811
80195fc8:	2f 74 65 73 	cmpdi   cr6,r20,25971
80195fcc:	74 4d 61 74 	andis.  r13,r2,24948
80195fd0:	68 2e 63 3a 	xori    r14,r1,25402
80195fd4:	38 30 00 00 	addi    r1,r16,0
80195fd8:	61 73 73 65 	ori     r19,r11,29541
80195fdc:	72 74 20 66 	andi.   r20,r19,8294
80195fe0:	61 69 6c 65 	ori     r9,r11,27749
80195fe4:	64 3a 20 74 	oris    r26,r1,8308
80195fe8:	65 73 74 73 	oris    r19,r11,29811
80195fec:	2f 74 65 73 	cmpdi   cr6,r20,25971
80195ff0:	74 4d 61 74 	andis.  r13,r2,24948
80195ff4:	68 2e 63 3a 	xori    r14,r1,25402
80195ff8:	38 31 00 00 	addi    r1,r17,0
80195ffc:	61 73 73 65 	ori     r19,r11,29541
80196000:	72 74 20 66 	andi.   r20,r19,8294
80196004:	61 69 6c 65 	ori     r9,r11,27749
80196008:	64 3a 20 74 	oris    r26,r1,8308
8019600c:	65 73 74 73 	oris    r19,r11,29811
80196010:	2f 74 65 73 	cmpdi   cr6,r20,25971
80196014:	74 4d 61 74 	andis.  r13,r2,24948
80196018:	68 2e 63 3a 	xori    r14,r1,25402
8019601c:	38 34 00 00 	addi    r1,r20,0
80196020:	61 73 73 65 	ori     r19,r11,29541
80196024:	72 74 20 66 	andi.   r20,r19,8294
80196028:	61 69 6c 65 	ori     r9,r11,27749
8019602c:	64 3a 20 74 	oris    r26,r1,8308
80196030:	65 73 74 73 	oris    r19,r11,29811
80196034:	2f 74 65 73 	cmpdi   cr6,r20,25971
80196038:	74 4d 61 74 	andis.  r13,r2,24948
8019603c:	68 2e 63 3a 	xori    r14,r1,25402
80196040:	38 35 00 00 	addi    r1,r21,0
80196044:	61 73 73 65 	ori     r19,r11,29541
80196048:	72 74 20 66 	andi.   r20,r19,8294
8019604c:	61 69 6c 65 	ori     r9,r11,27749
80196050:	64 3a 20 74 	oris    r26,r1,8308
80196054:	65 73 74 73 	oris    r19,r11,29811
80196058:	2f 74 65 73 	cmpdi   cr6,r20,25971
8019605c:	74 4d 61 74 	andis.  r13,r2,24948
80196060:	68 2e 63 3a 	xori    r14,r1,25402
80196064:	38 36 00 00 	addi    r1,r22,0
80196068:	61 73 73 65 	ori     r19,r11,29541
8019606c:	72 74 20 66 	andi.   r20,r19,8294
80196070:	61 69 6c 65 	ori     r9,r11,27749
80196074:	64 3a 20 74 	oris    r26,r1,8308
80196078:	65 73 74 73 	oris    r19,r11,29811
8019607c:	2f 74 65 73 	cmpdi   cr6,r20,25971
80196080:	74 4d 61 74 	andis.  r13,r2,24948
80196084:	68 2e 63 3a 	xori    r14,r1,25402
80196088:	38 37 00 00 	addi    r1,r23,0
8019608c:	61 73 73 65 	ori     r19,r11,29541
80196090:	72 74 20 66 	andi.   r20,r19,8294
80196094:	61 69 6c 65 	ori     r9,r11,27749
80196098:	64 3a 20 74 	oris    r26,r1,8308
8019609c:	65 73 74 73 	oris    r19,r11,29811
801960a0:	2f 74 65 73 	cmpdi   cr6,r20,25971
801960a4:	74 4d 61 74 	andis.  r13,r2,24948
801960a8:	68 2e 63 3a 	xori    r14,r1,25402
801960ac:	38 38 00 00 	addi    r1,r24,0
801960b0:	61 73 73 65 	ori     r19,r11,29541
801960b4:	72 74 20 66 	andi.   r20,r19,8294
801960b8:	61 69 6c 65 	ori     r9,r11,27749
801960bc:	64 3a 20 74 	oris    r26,r1,8308
801960c0:	65 73 74 73 	oris    r19,r11,29811
801960c4:	2f 74 65 73 	cmpdi   cr6,r20,25971
801960c8:	74 4d 61 74 	andis.  r13,r2,24948
801960cc:	68 2e 63 3a 	xori    r14,r1,25402
801960d0:	39 31 00 00 	addi    r9,r17,0
801960d4:	61 73 73 65 	ori     r19,r11,29541
801960d8:	72 74 20 66 	andi.   r20,r19,8294
801960dc:	61 69 6c 65 	ori     r9,r11,27749
801960e0:	64 3a 20 74 	oris    r26,r1,8308
801960e4:	65 73 74 73 	oris    r19,r11,29811
801960e8:	2f 74 65 73 	cmpdi   cr6,r20,25971
801960ec:	74 4d 61 74 	andis.  r13,r2,24948
801960f0:	68 2e 63 3a 	xori    r14,r1,25402
801960f4:	39 32 00 00 	addi    r9,r18,0
801960f8:	61 73 73 65 	ori     r19,r11,29541
801960fc:	72 74 20 66 	andi.   r20,r19,8294
80196100:	61 69 6c 65 	ori     r9,r11,27749
80196104:	64 3a 20 74 	oris    r26,r1,8308
80196108:	65 73 74 73 	oris    r19,r11,29811
8019610c:	2f 74 65 73 	cmpdi   cr6,r20,25971
80196110:	74 4d 61 74 	andis.  r13,r2,24948
80196114:	68 2e 63 3a 	xori    r14,r1,25402
80196118:	39 33 00 00 	addi    r9,r19,0
8019611c:	61 73 73 65 	ori     r19,r11,29541
80196120:	72 74 20 66 	andi.   r20,r19,8294
80196124:	61 69 6c 65 	ori     r9,r11,27749
80196128:	64 3a 20 74 	oris    r26,r1,8308
8019612c:	65 73 74 73 	oris    r19,r11,29811
80196130:	2f 74 65 73 	cmpdi   cr6,r20,25971
80196134:	74 4d 61 74 	andis.  r13,r2,24948
80196138:	68 2e 63 3a 	xori    r14,r1,25402
8019613c:	39 34 00 00 	addi    r9,r20,0
80196140:	61 73 73 65 	ori     r19,r11,29541
80196144:	72 74 20 66 	andi.   r20,r19,8294
80196148:	61 69 6c 65 	ori     r9,r11,27749
8019614c:	64 3a 20 74 	oris    r26,r1,8308
80196150:	65 73 74 73 	oris    r19,r11,29811
80196154:	2f 74 65 73 	cmpdi   cr6,r20,25971
80196158:	74 4d 61 74 	andis.  r13,r2,24948
8019615c:	68 2e 63 3a 	xori    r14,r1,25402
80196160:	39 37 00 00 	addi    r9,r23,0
80196164:	61 73 73 65 	ori     r19,r11,29541
80196168:	72 74 20 66 	andi.   r20,r19,8294
8019616c:	61 69 6c 65 	ori     r9,r11,27749
80196170:	64 3a 20 74 	oris    r26,r1,8308
80196174:	65 73 74 73 	oris    r19,r11,29811
80196178:	2f 74 65 73 	cmpdi   cr6,r20,25971
8019617c:	74 4d 61 74 	andis.  r13,r2,24948
80196180:	68 2e 63 3a 	xori    r14,r1,25402
80196184:	39 38 00 00 	addi    r9,r24,0
80196188:	61 73 73 65 	ori     r19,r11,29541
8019618c:	72 74 20 66 	andi.   r20,r19,8294
80196190:	61 69 6c 65 	ori     r9,r11,27749
80196194:	64 3a 20 74 	oris    r26,r1,8308
80196198:	65 73 74 73 	oris    r19,r11,29811
8019619c:	2f 74 65 73 	cmpdi   cr6,r20,25971
801961a0:	74 4d 61 74 	andis.  r13,r2,24948
801961a4:	68 2e 63 3a 	xori    r14,r1,25402
801961a8:	39 39 00 00 	addi    r9,r25,0
801961ac:	61 73 73 65 	ori     r19,r11,29541
801961b0:	72 74 20 66 	andi.   r20,r19,8294
801961b4:	61 69 6c 65 	ori     r9,r11,27749
801961b8:	64 3a 20 74 	oris    r26,r1,8308
801961bc:	65 73 74 73 	oris    r19,r11,29811
801961c0:	2f 74 65 73 	cmpdi   cr6,r20,25971
801961c4:	74 4d 61 74 	andis.  r13,r2,24948
801961c8:	68 2e 63 3a 	xori    r14,r1,25402
801961cc:	31 30 30 00 	addic   r9,r16,12288
801961d0:	61 73 73 65 	ori     r19,r11,29541
801961d4:	72 74 20 66 	andi.   r20,r19,8294
801961d8:	61 69 6c 65 	ori     r9,r11,27749
801961dc:	64 3a 20 74 	oris    r26,r1,8308
801961e0:	65 73 74 73 	oris    r19,r11,29811
801961e4:	2f 74 65 73 	cmpdi   cr6,r20,25971
801961e8:	74 4d 61 74 	andis.  r13,r2,24948
801961ec:	68 2e 63 3a 	xori    r14,r1,25402
801961f0:	31 30 33 00 	addic   r9,r16,13056
801961f4:	61 73 73 65 	ori     r19,r11,29541
801961f8:	72 74 20 66 	andi.   r20,r19,8294
801961fc:	61 69 6c 65 	ori     r9,r11,27749
80196200:	64 3a 20 74 	oris    r26,r1,8308
80196204:	65 73 74 73 	oris    r19,r11,29811
80196208:	2f 74 65 73 	cmpdi   cr6,r20,25971
8019620c:	74 4d 61 74 	andis.  r13,r2,24948
80196210:	68 2e 63 3a 	xori    r14,r1,25402
80196214:	31 30 34 00 	addic   r9,r16,13312
80196218:	61 73 73 65 	ori     r19,r11,29541
8019621c:	72 74 20 66 	andi.   r20,r19,8294
80196220:	61 69 6c 65 	ori     r9,r11,27749
80196224:	64 3a 20 74 	oris    r26,r1,8308
80196228:	65 73 74 73 	oris    r19,r11,29811
8019622c:	2f 74 65 73 	cmpdi   cr6,r20,25971
80196230:	74 4d 61 74 	andis.  r13,r2,24948
80196234:	68 2e 63 3a 	xori    r14,r1,25402
80196238:	31 30 35 00 	addic   r9,r16,13568
8019623c:	61 73 73 65 	ori     r19,r11,29541
80196240:	72 74 20 66 	andi.   r20,r19,8294
80196244:	61 69 6c 65 	ori     r9,r11,27749
80196248:	64 3a 20 74 	oris    r26,r1,8308
8019624c:	65 73 74 73 	oris    r19,r11,29811
80196250:	2f 74 65 73 	cmpdi   cr6,r20,25971
80196254:	74 4d 61 74 	andis.  r13,r2,24948
80196258:	68 2e 63 3a 	xori    r14,r1,25402
8019625c:	31 30 36 00 	addic   r9,r16,13824
80196260:	61 73 73 65 	ori     r19,r11,29541
80196264:	72 74 20 66 	andi.   r20,r19,8294
80196268:	61 69 6c 65 	ori     r9,r11,27749
8019626c:	64 3a 20 74 	oris    r26,r1,8308
80196270:	65 73 74 73 	oris    r19,r11,29811
80196274:	2f 74 65 73 	cmpdi   cr6,r20,25971
80196278:	74 4d 61 74 	andis.  r13,r2,24948
8019627c:	68 2e 63 3a 	xori    r14,r1,25402
80196280:	31 30 37 00 	addic   r9,r16,14080
80196284:	61 73 73 65 	ori     r19,r11,29541
80196288:	72 74 20 66 	andi.   r20,r19,8294
8019628c:	61 69 6c 65 	ori     r9,r11,27749
80196290:	64 3a 20 74 	oris    r26,r1,8308
80196294:	65 73 74 73 	oris    r19,r11,29811
80196298:	2f 74 65 73 	cmpdi   cr6,r20,25971
8019629c:	74 4d 61 74 	andis.  r13,r2,24948
801962a0:	68 2e 63 3a 	xori    r14,r1,25402
801962a4:	31 30 38 00 	addic   r9,r16,14336
801962a8:	61 73 73 65 	ori     r19,r11,29541
801962ac:	72 74 20 66 	andi.   r20,r19,8294
801962b0:	61 69 6c 65 	ori     r9,r11,27749
801962b4:	64 3a 20 74 	oris    r26,r1,8308
801962b8:	65 73 74 73 	oris    r19,r11,29811
801962bc:	2f 74 65 73 	cmpdi   cr6,r20,25971
801962c0:	74 4d 61 74 	andis.  r13,r2,24948
801962c4:	68 2e 63 3a 	xori    r14,r1,25402
801962c8:	31 31 31 00 	addic   r9,r17,12544
801962cc:	61 73 73 65 	ori     r19,r11,29541
801962d0:	72 74 20 66 	andi.   r20,r19,8294
801962d4:	61 69 6c 65 	ori     r9,r11,27749
801962d8:	64 3a 20 74 	oris    r26,r1,8308
801962dc:	65 73 74 73 	oris    r19,r11,29811
801962e0:	2f 74 65 73 	cmpdi   cr6,r20,25971
801962e4:	74 4d 61 74 	andis.  r13,r2,24948
801962e8:	68 2e 63 3a 	xori    r14,r1,25402
801962ec:	31 31 32 00 	addic   r9,r17,12800
801962f0:	61 73 73 65 	ori     r19,r11,29541
801962f4:	72 74 20 66 	andi.   r20,r19,8294
801962f8:	61 69 6c 65 	ori     r9,r11,27749
801962fc:	64 3a 20 74 	oris    r26,r1,8308
80196300:	65 73 74 73 	oris    r19,r11,29811
80196304:	2f 74 65 73 	cmpdi   cr6,r20,25971
80196308:	74 4d 61 74 	andis.  r13,r2,24948
8019630c:	68 2e 63 3a 	xori    r14,r1,25402
80196310:	31 31 33 00 	addic   r9,r17,13056
80196314:	61 73 73 65 	ori     r19,r11,29541
80196318:	72 74 20 66 	andi.   r20,r19,8294
8019631c:	61 69 6c 65 	ori     r9,r11,27749
80196320:	64 3a 20 74 	oris    r26,r1,8308
80196324:	65 73 74 73 	oris    r19,r11,29811
80196328:	2f 74 65 73 	cmpdi   cr6,r20,25971
8019632c:	74 4d 61 74 	andis.  r13,r2,24948
80196330:	68 2e 63 3a 	xori    r14,r1,25402
80196334:	31 31 34 00 	addic   r9,r17,13312
80196338:	61 73 73 65 	ori     r19,r11,29541
8019633c:	72 74 20 66 	andi.   r20,r19,8294
80196340:	61 69 6c 65 	ori     r9,r11,27749
80196344:	64 3a 20 74 	oris    r26,r1,8308
80196348:	65 73 74 73 	oris    r19,r11,29811
8019634c:	2f 74 65 73 	cmpdi   cr6,r20,25971
80196350:	74 4d 61 74 	andis.  r13,r2,24948
80196354:	68 2e 63 3a 	xori    r14,r1,25402
80196358:	31 31 35 00 	addic   r9,r17,13568
8019635c:	61 73 73 65 	ori     r19,r11,29541
80196360:	72 74 20 66 	andi.   r20,r19,8294
80196364:	61 69 6c 65 	ori     r9,r11,27749
80196368:	64 3a 20 74 	oris    r26,r1,8308
8019636c:	65 73 74 73 	oris    r19,r11,29811
80196370:	2f 74 65 73 	cmpdi   cr6,r20,25971
80196374:	74 4d 61 74 	andis.  r13,r2,24948
80196378:	68 2e 63 3a 	xori    r14,r1,25402
8019637c:	31 31 36 00 	addic   r9,r17,13824
80196380:	61 73 73 65 	ori     r19,r11,29541
80196384:	72 74 20 66 	andi.   r20,r19,8294
80196388:	61 69 6c 65 	ori     r9,r11,27749
8019638c:	64 3a 20 74 	oris    r26,r1,8308
80196390:	65 73 74 73 	oris    r19,r11,29811
80196394:	2f 74 65 73 	cmpdi   cr6,r20,25971
80196398:	74 4d 61 74 	andis.  r13,r2,24948
8019639c:	68 2e 63 3a 	xori    r14,r1,25402
801963a0:	31 31 39 00 	addic   r9,r17,14592
801963a4:	61 73 73 65 	ori     r19,r11,29541
801963a8:	72 74 20 66 	andi.   r20,r19,8294
801963ac:	61 69 6c 65 	ori     r9,r11,27749
801963b0:	64 3a 20 74 	oris    r26,r1,8308
801963b4:	65 73 74 73 	oris    r19,r11,29811
801963b8:	2f 74 65 73 	cmpdi   cr6,r20,25971
801963bc:	74 4d 61 74 	andis.  r13,r2,24948
801963c0:	68 2e 63 3a 	xori    r14,r1,25402
801963c4:	31 32 30 00 	addic   r9,r18,12288
801963c8:	61 73 73 65 	ori     r19,r11,29541
801963cc:	72 74 20 66 	andi.   r20,r19,8294
801963d0:	61 69 6c 65 	ori     r9,r11,27749
801963d4:	64 3a 20 74 	oris    r26,r1,8308
801963d8:	65 73 74 73 	oris    r19,r11,29811
801963dc:	2f 74 65 73 	cmpdi   cr6,r20,25971
801963e0:	74 4d 61 74 	andis.  r13,r2,24948
801963e4:	68 2e 63 3a 	xori    r14,r1,25402
801963e8:	31 32 31 00 	addic   r9,r18,12544
801963ec:	61 73 73 65 	ori     r19,r11,29541
801963f0:	72 74 20 66 	andi.   r20,r19,8294
801963f4:	61 69 6c 65 	ori     r9,r11,27749
801963f8:	64 3a 20 74 	oris    r26,r1,8308
801963fc:	65 73 74 73 	oris    r19,r11,29811
80196400:	2f 74 65 73 	cmpdi   cr6,r20,25971
80196404:	74 4d 61 74 	andis.  r13,r2,24948
80196408:	68 2e 63 3a 	xori    r14,r1,25402
8019640c:	31 32 32 00 	addic   r9,r18,12800
80196410:	61 73 73 65 	ori     r19,r11,29541
80196414:	72 74 20 66 	andi.   r20,r19,8294
80196418:	61 69 6c 65 	ori     r9,r11,27749
8019641c:	64 3a 20 74 	oris    r26,r1,8308
80196420:	65 73 74 73 	oris    r19,r11,29811
80196424:	2f 74 65 73 	cmpdi   cr6,r20,25971
80196428:	74 4d 61 74 	andis.  r13,r2,24948
8019642c:	68 2e 63 3a 	xori    r14,r1,25402
80196430:	31 32 33 00 	addic   r9,r18,13056
80196434:	61 73 73 65 	ori     r19,r11,29541
80196438:	72 74 20 66 	andi.   r20,r19,8294
8019643c:	61 69 6c 65 	ori     r9,r11,27749
80196440:	64 3a 20 74 	oris    r26,r1,8308
80196444:	65 73 74 73 	oris    r19,r11,29811
80196448:	2f 74 65 73 	cmpdi   cr6,r20,25971
8019644c:	74 4d 61 74 	andis.  r13,r2,24948
80196450:	68 2e 63 3a 	xori    r14,r1,25402
80196454:	31 32 34 00 	addic   r9,r18,13312
80196458:	61 73 73 65 	ori     r19,r11,29541
8019645c:	72 74 20 66 	andi.   r20,r19,8294
80196460:	61 69 6c 65 	ori     r9,r11,27749
80196464:	64 3a 20 74 	oris    r26,r1,8308
80196468:	65 73 74 73 	oris    r19,r11,29811
8019646c:	2f 74 65 73 	cmpdi   cr6,r20,25971
80196470:	74 4d 61 74 	andis.  r13,r2,24948
80196474:	68 2e 63 3a 	xori    r14,r1,25402
80196478:	31 32 37 00 	addic   r9,r18,14080
8019647c:	61 73 73 65 	ori     r19,r11,29541
80196480:	72 74 20 66 	andi.   r20,r19,8294
80196484:	61 69 6c 65 	ori     r9,r11,27749
80196488:	64 3a 20 74 	oris    r26,r1,8308
8019648c:	65 73 74 73 	oris    r19,r11,29811
80196490:	2f 74 65 73 	cmpdi   cr6,r20,25971
80196494:	74 4d 61 74 	andis.  r13,r2,24948
80196498:	68 2e 63 3a 	xori    r14,r1,25402
8019649c:	31 32 38 00 	addic   r9,r18,14336
801964a0:	61 73 73 65 	ori     r19,r11,29541
801964a4:	72 74 20 66 	andi.   r20,r19,8294
801964a8:	61 69 6c 65 	ori     r9,r11,27749
801964ac:	64 3a 20 74 	oris    r26,r1,8308
801964b0:	65 73 74 73 	oris    r19,r11,29811
801964b4:	2f 74 65 73 	cmpdi   cr6,r20,25971
801964b8:	74 4d 61 74 	andis.  r13,r2,24948
801964bc:	68 2e 63 3a 	xori    r14,r1,25402
801964c0:	31 32 39 00 	addic   r9,r18,14592
801964c4:	61 73 73 65 	ori     r19,r11,29541
801964c8:	72 74 20 66 	andi.   r20,r19,8294
801964cc:	61 69 6c 65 	ori     r9,r11,27749
801964d0:	64 3a 20 74 	oris    r26,r1,8308
801964d4:	65 73 74 73 	oris    r19,r11,29811
801964d8:	2f 74 65 73 	cmpdi   cr6,r20,25971
801964dc:	74 4d 61 74 	andis.  r13,r2,24948
801964e0:	68 2e 63 3a 	xori    r14,r1,25402
801964e4:	31 33 30 00 	addic   r9,r19,12288
801964e8:	61 73 73 65 	ori     r19,r11,29541
801964ec:	72 74 20 66 	andi.   r20,r19,8294
801964f0:	61 69 6c 65 	ori     r9,r11,27749
801964f4:	64 3a 20 74 	oris    r26,r1,8308
801964f8:	65 73 74 73 	oris    r19,r11,29811
801964fc:	2f 74 65 73 	cmpdi   cr6,r20,25971
80196500:	74 4d 61 74 	andis.  r13,r2,24948
80196504:	68 2e 63 3a 	xori    r14,r1,25402
80196508:	31 33 31 00 	addic   r9,r19,12544
8019650c:	61 73 73 65 	ori     r19,r11,29541
80196510:	72 74 20 66 	andi.   r20,r19,8294
80196514:	61 69 6c 65 	ori     r9,r11,27749
80196518:	64 3a 20 74 	oris    r26,r1,8308
8019651c:	65 73 74 73 	oris    r19,r11,29811
80196520:	2f 74 65 73 	cmpdi   cr6,r20,25971
80196524:	74 4d 61 74 	andis.  r13,r2,24948
80196528:	68 2e 63 3a 	xori    r14,r1,25402
8019652c:	31 33 32 00 	addic   r9,r19,12800
80196530:	61 73 73 65 	ori     r19,r11,29541
80196534:	72 74 20 66 	andi.   r20,r19,8294
80196538:	61 69 6c 65 	ori     r9,r11,27749
8019653c:	64 3a 20 74 	oris    r26,r1,8308
80196540:	65 73 74 73 	oris    r19,r11,29811
80196544:	2f 74 65 73 	cmpdi   cr6,r20,25971
80196548:	74 4d 61 74 	andis.  r13,r2,24948
8019654c:	68 2e 63 3a 	xori    r14,r1,25402
80196550:	31 33 35 00 	addic   r9,r19,13568
80196554:	61 73 73 65 	ori     r19,r11,29541
80196558:	72 74 20 66 	andi.   r20,r19,8294
8019655c:	61 69 6c 65 	ori     r9,r11,27749
80196560:	64 3a 20 74 	oris    r26,r1,8308
80196564:	65 73 74 73 	oris    r19,r11,29811
80196568:	2f 74 65 73 	cmpdi   cr6,r20,25971
8019656c:	74 4d 61 74 	andis.  r13,r2,24948
80196570:	68 2e 63 3a 	xori    r14,r1,25402
80196574:	31 33 36 00 	addic   r9,r19,13824
80196578:	61 73 73 65 	ori     r19,r11,29541
8019657c:	72 74 20 66 	andi.   r20,r19,8294
80196580:	61 69 6c 65 	ori     r9,r11,27749
80196584:	64 3a 20 74 	oris    r26,r1,8308
80196588:	65 73 74 73 	oris    r19,r11,29811
8019658c:	2f 74 65 73 	cmpdi   cr6,r20,25971
80196590:	74 4d 61 74 	andis.  r13,r2,24948
80196594:	68 2e 63 3a 	xori    r14,r1,25402
80196598:	31 33 37 00 	addic   r9,r19,14080
8019659c:	61 73 73 65 	ori     r19,r11,29541
801965a0:	72 74 20 66 	andi.   r20,r19,8294
801965a4:	61 69 6c 65 	ori     r9,r11,27749
801965a8:	64 3a 20 74 	oris    r26,r1,8308
801965ac:	65 73 74 73 	oris    r19,r11,29811
801965b0:	2f 74 65 73 	cmpdi   cr6,r20,25971
801965b4:	74 4d 61 74 	andis.  r13,r2,24948
801965b8:	68 2e 63 3a 	xori    r14,r1,25402
801965bc:	31 33 38 00 	addic   r9,r19,14336
801965c0:	61 73 73 65 	ori     r19,r11,29541
801965c4:	72 74 20 66 	andi.   r20,r19,8294
801965c8:	61 69 6c 65 	ori     r9,r11,27749
801965cc:	64 3a 20 74 	oris    r26,r1,8308
801965d0:	65 73 74 73 	oris    r19,r11,29811
801965d4:	2f 74 65 73 	cmpdi   cr6,r20,25971
801965d8:	74 4d 61 74 	andis.  r13,r2,24948
801965dc:	68 2e 63 3a 	xori    r14,r1,25402
801965e0:	31 33 39 00 	addic   r9,r19,14592
801965e4:	61 73 73 65 	ori     r19,r11,29541
801965e8:	72 74 20 66 	andi.   r20,r19,8294
801965ec:	61 69 6c 65 	ori     r9,r11,27749
801965f0:	64 3a 20 74 	oris    r26,r1,8308
801965f4:	65 73 74 73 	oris    r19,r11,29811
801965f8:	2f 74 65 73 	cmpdi   cr6,r20,25971
801965fc:	74 4d 61 74 	andis.  r13,r2,24948
80196600:	68 2e 63 3a 	xori    r14,r1,25402
80196604:	31 34 30 00 	addic   r9,r20,12288
80196608:	61 73 73 65 	ori     r19,r11,29541
8019660c:	72 74 20 66 	andi.   r20,r19,8294
80196610:	61 69 6c 65 	ori     r9,r11,27749
80196614:	64 3a 20 74 	oris    r26,r1,8308
80196618:	65 73 74 73 	oris    r19,r11,29811
8019661c:	2f 74 65 73 	cmpdi   cr6,r20,25971
80196620:	74 4d 61 74 	andis.  r13,r2,24948
80196624:	68 2e 63 3a 	xori    r14,r1,25402
80196628:	31 34 31 00 	addic   r9,r20,12544
8019662c:	61 73 73 65 	ori     r19,r11,29541
80196630:	72 74 20 66 	andi.   r20,r19,8294
80196634:	61 69 6c 65 	ori     r9,r11,27749
80196638:	64 3a 20 74 	oris    r26,r1,8308
8019663c:	65 73 74 73 	oris    r19,r11,29811
80196640:	2f 74 65 73 	cmpdi   cr6,r20,25971
80196644:	74 4d 61 74 	andis.  r13,r2,24948
80196648:	68 2e 63 3a 	xori    r14,r1,25402
8019664c:	31 34 34 00 	addic   r9,r20,13312
80196650:	61 73 73 65 	ori     r19,r11,29541
80196654:	72 74 20 66 	andi.   r20,r19,8294
80196658:	61 69 6c 65 	ori     r9,r11,27749
8019665c:	64 3a 20 74 	oris    r26,r1,8308
80196660:	65 73 74 73 	oris    r19,r11,29811
80196664:	2f 74 65 73 	cmpdi   cr6,r20,25971
80196668:	74 4d 61 74 	andis.  r13,r2,24948
8019666c:	68 2e 63 3a 	xori    r14,r1,25402
80196670:	31 34 35 00 	addic   r9,r20,13568
80196674:	61 73 73 65 	ori     r19,r11,29541
80196678:	72 74 20 66 	andi.   r20,r19,8294
8019667c:	61 69 6c 65 	ori     r9,r11,27749
80196680:	64 3a 20 74 	oris    r26,r1,8308
80196684:	65 73 74 73 	oris    r19,r11,29811
80196688:	2f 74 65 73 	cmpdi   cr6,r20,25971
8019668c:	74 4d 61 74 	andis.  r13,r2,24948
80196690:	68 2e 63 3a 	xori    r14,r1,25402
80196694:	31 34 36 00 	addic   r9,r20,13824
80196698:	61 73 73 65 	ori     r19,r11,29541
8019669c:	72 74 20 66 	andi.   r20,r19,8294
801966a0:	61 69 6c 65 	ori     r9,r11,27749
801966a4:	64 3a 20 74 	oris    r26,r1,8308
801966a8:	65 73 74 73 	oris    r19,r11,29811
801966ac:	2f 74 65 73 	cmpdi   cr6,r20,25971
801966b0:	74 4d 61 74 	andis.  r13,r2,24948
801966b4:	68 2e 63 3a 	xori    r14,r1,25402
801966b8:	31 34 37 00 	addic   r9,r20,14080
801966bc:	61 73 73 65 	ori     r19,r11,29541
801966c0:	72 74 20 66 	andi.   r20,r19,8294
801966c4:	61 69 6c 65 	ori     r9,r11,27749
801966c8:	64 3a 20 74 	oris    r26,r1,8308
801966cc:	65 73 74 73 	oris    r19,r11,29811
801966d0:	2f 74 65 73 	cmpdi   cr6,r20,25971
801966d4:	74 4d 61 74 	andis.  r13,r2,24948
801966d8:	68 2e 63 3a 	xori    r14,r1,25402
801966dc:	31 34 38 00 	addic   r9,r20,14336
801966e0:	61 73 73 65 	ori     r19,r11,29541
801966e4:	72 74 20 66 	andi.   r20,r19,8294
801966e8:	61 69 6c 65 	ori     r9,r11,27749
801966ec:	64 3a 20 74 	oris    r26,r1,8308
801966f0:	65 73 74 73 	oris    r19,r11,29811
801966f4:	2f 74 65 73 	cmpdi   cr6,r20,25971
801966f8:	74 4d 61 74 	andis.  r13,r2,24948
801966fc:	68 2e 63 3a 	xori    r14,r1,25402
80196700:	31 34 39 00 	addic   r9,r20,14592
80196704:	61 73 73 65 	ori     r19,r11,29541
80196708:	72 74 20 66 	andi.   r20,r19,8294
8019670c:	61 69 6c 65 	ori     r9,r11,27749
80196710:	64 3a 20 74 	oris    r26,r1,8308
80196714:	65 73 74 73 	oris    r19,r11,29811
80196718:	2f 74 65 73 	cmpdi   cr6,r20,25971
8019671c:	74 4d 61 74 	andis.  r13,r2,24948
80196720:	68 2e 63 3a 	xori    r14,r1,25402
80196724:	31 35 37 00 	addic   r9,r21,14080
80196728:	61 73 73 65 	ori     r19,r11,29541
8019672c:	72 74 20 66 	andi.   r20,r19,8294
80196730:	61 69 6c 65 	ori     r9,r11,27749
80196734:	64 3a 20 74 	oris    r26,r1,8308
80196738:	65 73 74 73 	oris    r19,r11,29811
8019673c:	2f 74 65 73 	cmpdi   cr6,r20,25971
80196740:	74 4d 61 74 	andis.  r13,r2,24948
80196744:	68 2e 63 3a 	xori    r14,r1,25402
80196748:	31 36 35 00 	addic   r9,r22,13568
8019674c:	61 73 73 65 	ori     r19,r11,29541
80196750:	72 74 20 66 	andi.   r20,r19,8294
80196754:	61 69 6c 65 	ori     r9,r11,27749
80196758:	64 3a 20 74 	oris    r26,r1,8308
8019675c:	65 73 74 73 	oris    r19,r11,29811
80196760:	2f 74 65 73 	cmpdi   cr6,r20,25971
80196764:	74 4d 61 74 	andis.  r13,r2,24948
80196768:	68 2e 63 3a 	xori    r14,r1,25402
8019676c:	31 37 35 00 	addic   r9,r23,13568
80196770:	61 73 73 65 	ori     r19,r11,29541
80196774:	72 74 20 66 	andi.   r20,r19,8294
80196778:	61 69 6c 65 	ori     r9,r11,27749
8019677c:	64 3a 20 74 	oris    r26,r1,8308
80196780:	65 73 74 73 	oris    r19,r11,29811
80196784:	2f 74 65 73 	cmpdi   cr6,r20,25971
80196788:	74 4d 61 74 	andis.  r13,r2,24948
8019678c:	68 2e 63 3a 	xori    r14,r1,25402
80196790:	31 38 34 00 	addic   r9,r24,13312
80196794:	61 73 73 65 	ori     r19,r11,29541
80196798:	72 74 20 66 	andi.   r20,r19,8294
8019679c:	61 69 6c 65 	ori     r9,r11,27749
801967a0:	64 3a 20 74 	oris    r26,r1,8308
801967a4:	65 73 74 73 	oris    r19,r11,29811
801967a8:	2f 74 65 73 	cmpdi   cr6,r20,25971
801967ac:	74 4d 61 74 	andis.  r13,r2,24948
801967b0:	68 2e 63 3a 	xori    r14,r1,25402
801967b4:	31 39 33 00 	addic   r9,r25,13056
801967b8:	61 73 73 65 	ori     r19,r11,29541
801967bc:	72 74 20 66 	andi.   r20,r19,8294
801967c0:	61 69 6c 65 	ori     r9,r11,27749
801967c4:	64 3a 20 74 	oris    r26,r1,8308
801967c8:	65 73 74 73 	oris    r19,r11,29811
801967cc:	2f 74 65 73 	cmpdi   cr6,r20,25971
801967d0:	74 4d 61 74 	andis.  r13,r2,24948
801967d4:	68 2e 63 3a 	xori    r14,r1,25402
801967d8:	32 30 33 00 	addic   r17,r16,13056
801967dc:	61 73 73 65 	ori     r19,r11,29541
801967e0:	72 74 20 66 	andi.   r20,r19,8294
801967e4:	61 69 6c 65 	ori     r9,r11,27749
801967e8:	64 3a 20 74 	oris    r26,r1,8308
801967ec:	65 73 74 73 	oris    r19,r11,29811
801967f0:	2f 74 65 73 	cmpdi   cr6,r20,25971
801967f4:	74 4d 61 74 	andis.  r13,r2,24948
801967f8:	68 2e 63 3a 	xori    r14,r1,25402
801967fc:	32 31 32 00 	addic   r17,r17,12800
80196800:	61 73 73 65 	ori     r19,r11,29541
80196804:	72 74 20 66 	andi.   r20,r19,8294
80196808:	61 69 6c 65 	ori     r9,r11,27749
8019680c:	64 3a 20 74 	oris    r26,r1,8308
80196810:	65 73 74 73 	oris    r19,r11,29811
80196814:	2f 74 65 73 	cmpdi   cr6,r20,25971
80196818:	74 4d 61 74 	andis.  r13,r2,24948
8019681c:	68 2e 63 3a 	xori    r14,r1,25402
80196820:	32 32 30 00 	addic   r17,r18,12288
80196824:	61 73 73 65 	ori     r19,r11,29541
80196828:	72 74 20 66 	andi.   r20,r19,8294
8019682c:	61 69 6c 65 	ori     r9,r11,27749
80196830:	64 3a 20 74 	oris    r26,r1,8308
80196834:	65 73 74 73 	oris    r19,r11,29811
80196838:	2f 74 65 73 	cmpdi   cr6,r20,25971
8019683c:	74 4d 61 74 	andis.  r13,r2,24948
80196840:	68 2e 63 3a 	xori    r14,r1,25402
80196844:	32 32 31 00 	addic   r17,r18,12544
80196848:	61 73 73 65 	ori     r19,r11,29541
8019684c:	72 74 20 66 	andi.   r20,r19,8294
80196850:	61 69 6c 65 	ori     r9,r11,27749
80196854:	64 3a 20 74 	oris    r26,r1,8308
80196858:	65 73 74 73 	oris    r19,r11,29811
8019685c:	2f 74 65 73 	cmpdi   cr6,r20,25971
80196860:	74 4d 61 74 	andis.  r13,r2,24948
80196864:	68 2e 63 3a 	xori    r14,r1,25402
80196868:	32 32 34 00 	addic   r17,r18,13312
8019686c:	61 73 73 65 	ori     r19,r11,29541
80196870:	72 74 20 66 	andi.   r20,r19,8294
80196874:	61 69 6c 65 	ori     r9,r11,27749
80196878:	64 3a 20 74 	oris    r26,r1,8308
8019687c:	65 73 74 73 	oris    r19,r11,29811
80196880:	2f 74 65 73 	cmpdi   cr6,r20,25971
80196884:	74 4d 61 74 	andis.  r13,r2,24948
80196888:	68 2e 63 3a 	xori    r14,r1,25402
8019688c:	32 32 35 00 	addic   r17,r18,13568
80196890:	61 73 73 65 	ori     r19,r11,29541
80196894:	72 74 20 66 	andi.   r20,r19,8294
80196898:	61 69 6c 65 	ori     r9,r11,27749
8019689c:	64 3a 20 74 	oris    r26,r1,8308
801968a0:	65 73 74 73 	oris    r19,r11,29811
801968a4:	2f 74 65 73 	cmpdi   cr6,r20,25971
801968a8:	74 4d 61 74 	andis.  r13,r2,24948
801968ac:	68 2e 63 3a 	xori    r14,r1,25402
801968b0:	32 32 38 00 	addic   r17,r18,14336
801968b4:	61 73 73 65 	ori     r19,r11,29541
801968b8:	72 74 20 66 	andi.   r20,r19,8294
801968bc:	61 69 6c 65 	ori     r9,r11,27749
801968c0:	64 3a 20 74 	oris    r26,r1,8308
801968c4:	65 73 74 73 	oris    r19,r11,29811
801968c8:	2f 74 65 73 	cmpdi   cr6,r20,25971
801968cc:	74 4d 61 74 	andis.  r13,r2,24948
801968d0:	68 2e 63 3a 	xori    r14,r1,25402
801968d4:	32 32 39 00 	addic   r17,r18,14592
801968d8:	61 6c 6c 20 	ori     r12,r11,27680
801968dc:	74 65 73 74 	andis.  r5,r3,29556
801968e0:	73 20 70 61 	andi.   r0,r25,28769
801968e4:	73 73 65 64 	andi.   r19,r27,25956
801968e8:	21 00 00 00 	subfic  r8,r0,0


80197a74 <wiimake_section_18>:

80197a74:	40 40 00 00 	bdzf    lt,80197a74 <fmin+0x28>
80197a78:	40 80 00 00 	bge     80197a78 <fmin+0x2c>
80197a7c:	c0 00 00 00 	lfs     f0,0(0)
80197a80:	40 00 00 00 	bdnzf   lt,80197a80 <fmin+0x34>


801943b0 <_main>:

801943b0:	94 21 ff 48 	stwu    r1,-184(r1)
801943b4:	7c 08 02 a6 	mflr    r0
801943b8:	90 01 00 bc 	stw     r0,188(r1)
801943bc:	db e1 00 b0 	stfd    f31,176(r1)
801943c0:	93 c1 00 a8 	stw     r30,168(r1)
801943c4:	93 e1 00 ac 	stw     r31,172(r1)
801943c8:	7c 3f 0b 78 	mr      r31,r1
801943cc:	3d 20 80 19 	lis     r9,-32743
801943d0:	81 29 7a d8 	lwz     r9,31448(r9)
801943d4:	2f 89 00 00 	cmpwi   cr7,r9,0
801943d8:	40 9e 00 14 	bne     cr7,801943ec <_main+0x3c>
801943dc:	48 00 31 6d 	bl      80197548 <init>
801943e0:	3d 20 80 19 	lis     r9,-32743
801943e4:	39 40 00 01 	li      r10,1
801943e8:	91 49 7a d8 	stw     r10,31448(r9)
801943ec:	3d 20 80 19 	lis     r9,-32743
801943f0:	81 29 7a e0 	lwz     r9,31456(r9)
801943f4:	2f 89 00 00 	cmpwi   cr7,r9,0
801943f8:	40 9e 1b 74 	bne     cr7,80195f6c <_main+0x1bbc>
801943fc:	3d 20 80 19 	lis     r9,-32743
80194400:	81 29 7a c8 	lwz     r9,31432(r9)
80194404:	3d 40 80 19 	lis     r10,-32743
80194408:	c0 0a 70 b8 	lfs     f0,28856(r10)
8019440c:	fc 20 00 90 	fmr     f1,f0
80194410:	7d 29 03 a6 	mtctr   r9
80194414:	4e 80 04 21 	bctrl
80194418:	fd a0 08 90 	fmr     f13,f1
8019441c:	3d 20 80 19 	lis     r9,-32743
80194420:	c0 09 70 bc 	lfs     f0,28860(r9)
80194424:	ff 8d 00 00 	fcmpu   cr7,f13,f0
80194428:	41 9e 00 1c 	beq     cr7,80194444 <_main+0x94>
8019442c:	3d 20 80 19 	lis     r9,-32743
80194430:	38 69 5f 90 	addi    r3,r9,24464
80194434:	48 00 24 bd 	bl      801968f0 <print>
80194438:	3d 20 80 19 	lis     r9,-32743
8019443c:	39 40 00 00 	li      r10,0
80194440:	91 49 7a d0 	stw     r10,31440(r9)
80194444:	3d 20 80 19 	lis     r9,-32743
80194448:	81 29 7a c8 	lwz     r9,31432(r9)
8019444c:	3d 40 80 19 	lis     r10,-32743
80194450:	c0 0a 70 c0 	lfs     f0,28864(r10)
80194454:	fc 20 00 90 	fmr     f1,f0
80194458:	7d 29 03 a6 	mtctr   r9
8019445c:	4e 80 04 21 	bctrl
80194460:	fd a0 08 90 	fmr     f13,f1
80194464:	3d 20 80 19 	lis     r9,-32743
80194468:	c0 09 70 c0 	lfs     f0,28864(r9)
8019446c:	ff 8d 00 00 	fcmpu   cr7,f13,f0
80194470:	41 9e 00 1c 	beq     cr7,8019448c <_main+0xdc>
80194474:	3d 20 80 19 	lis     r9,-32743
80194478:	38 69 5f b4 	addi    r3,r9,24500
8019447c:	48 00 24 75 	bl      801968f0 <print>
80194480:	3d 20 80 19 	lis     r9,-32743
80194484:	39 40 00 00 	li      r10,0
80194488:	91 49 7a d0 	stw     r10,31440(r9)
8019448c:	3d 20 80 19 	lis     r9,-32743
80194490:	81 29 7a c8 	lwz     r9,31432(r9)
80194494:	3d 40 80 19 	lis     r10,-32743
80194498:	c0 2a 71 6c 	lfs     f1,29036(r10)
8019449c:	7d 29 03 a6 	mtctr   r9
801944a0:	4e 80 04 21 	bctrl
801944a4:	fc 00 08 90 	fmr     f0,f1
801944a8:	3d 20 80 19 	lis     r9,-32743
801944ac:	c1 a9 71 6c 	lfs     f13,29036(r9)
801944b0:	ff 80 68 00 	fcmpu   cr7,f0,f13
801944b4:	41 9e 00 1c 	beq     cr7,801944d0 <_main+0x120>
801944b8:	3d 20 80 19 	lis     r9,-32743
801944bc:	38 69 5f d8 	addi    r3,r9,24536
801944c0:	48 00 24 31 	bl      801968f0 <print>
801944c4:	3d 20 80 19 	lis     r9,-32743
801944c8:	39 40 00 00 	li      r10,0
801944cc:	91 49 7a d0 	stw     r10,31440(r9)
801944d0:	3d 20 80 19 	lis     r9,-32743
801944d4:	83 c9 7a c8 	lwz     r30,31432(r9)
801944d8:	3d 20 80 19 	lis     r9,-32743
801944dc:	c0 09 70 c4 	lfs     f0,28868(r9)
801944e0:	d0 1f 00 58 	stfs    f0,88(r31)
801944e4:	c0 1f 00 58 	lfs     f0,88(r31)
801944e8:	3d 40 80 19 	lis     r10,-32743
801944ec:	c1 aa 71 6c 	lfs     f13,29036(r10)
801944f0:	ff 80 68 00 	fcmpu   cr7,f0,f13
801944f4:	41 9e 00 2c 	beq     cr7,80194520 <_main+0x170>
801944f8:	3d 20 80 19 	lis     r9,-32743
801944fc:	81 29 7a c0 	lwz     r9,31424(r9)
80194500:	c0 3f 00 58 	lfs     f1,88(r31)
80194504:	7d 29 03 a6 	mtctr   r9
80194508:	4e 80 04 21 	bctrl
8019450c:	fc 00 08 90 	fmr     f0,f1
80194510:	3d 20 80 19 	lis     r9,-32743
80194514:	c1 a9 70 c8 	lfs     f13,28872(r9)
80194518:	ec 0d 00 24 	fdivs   f0,f13,f0
8019451c:	48 00 00 0c 	b       80194528 <_main+0x178>
80194520:	3d 20 80 19 	lis     r9,-32743
80194524:	c0 09 71 6c 	lfs     f0,29036(r9)
80194528:	fd a0 00 90 	fmr     f13,f0
8019452c:	3d 20 80 19 	lis     r9,-32743
80194530:	c0 09 70 cc 	lfs     f0,28876(r9)
80194534:	ec 0d 00 28 	fsubs   f0,f13,f0
80194538:	fc 20 00 90 	fmr     f1,f0
8019453c:	7f c9 03 a6 	mtctr   r30
80194540:	4e 80 04 21 	bctrl
80194544:	fd a0 08 90 	fmr     f13,f1
80194548:	3d 20 80 19 	lis     r9,-32743
8019454c:	c0 09 70 d0 	lfs     f0,28880(r9)
80194550:	ff 8d 00 00 	fcmpu   cr7,f13,f0
80194554:	7d 20 00 26 	mfcr    r9
80194558:	55 29 ef fe 	rlwinm  r9,r9,29,31,31
8019455c:	55 29 06 3e 	clrlwi  r9,r9,24
80194560:	69 29 00 01 	xori    r9,r9,1
80194564:	55 29 06 3e 	clrlwi  r9,r9,24
80194568:	2f 89 00 00 	cmpwi   cr7,r9,0
8019456c:	41 9e 00 1c 	beq     cr7,80194588 <_main+0x1d8>
80194570:	3d 20 80 19 	lis     r9,-32743
80194574:	38 69 5f fc 	addi    r3,r9,24572
80194578:	48 00 23 79 	bl      801968f0 <print>
8019457c:	3d 20 80 19 	lis     r9,-32743
80194580:	39 40 00 00 	li      r10,0
80194584:	91 49 7a d0 	stw     r10,31440(r9)
80194588:	3d 20 80 19 	lis     r9,-32743
8019458c:	83 c9 7a c8 	lwz     r30,31432(r9)
80194590:	3d 20 80 19 	lis     r9,-32743
80194594:	c0 09 71 6c 	lfs     f0,29036(r9)
80194598:	d0 1f 00 5c 	stfs    f0,92(r31)
8019459c:	c0 1f 00 5c 	lfs     f0,92(r31)
801945a0:	3d 40 80 19 	lis     r10,-32743
801945a4:	c1 aa 71 6c 	lfs     f13,29036(r10)
801945a8:	ff 80 68 00 	fcmpu   cr7,f0,f13
801945ac:	41 9e 00 2c 	beq     cr7,801945d8 <_main+0x228>
801945b0:	3d 20 80 19 	lis     r9,-32743
801945b4:	81 29 7a c0 	lwz     r9,31424(r9)
801945b8:	c0 3f 00 5c 	lfs     f1,92(r31)
801945bc:	7d 29 03 a6 	mtctr   r9
801945c0:	4e 80 04 21 	bctrl
801945c4:	fc 00 08 90 	fmr     f0,f1
801945c8:	3d 20 80 19 	lis     r9,-32743
801945cc:	c1 a9 70 c8 	lfs     f13,28872(r9)
801945d0:	ec 0d 00 24 	fdivs   f0,f13,f0
801945d4:	48 00 00 0c 	b       801945e0 <_main+0x230>
801945d8:	3d 20 80 19 	lis     r9,-32743
801945dc:	c0 09 71 6c 	lfs     f0,29036(r9)
801945e0:	fc 20 00 90 	fmr     f1,f0
801945e4:	7f c9 03 a6 	mtctr   r30
801945e8:	4e 80 04 21 	bctrl
801945ec:	fd a0 08 90 	fmr     f13,f1
801945f0:	3d 20 80 19 	lis     r9,-32743
801945f4:	c0 09 70 d0 	lfs     f0,28880(r9)
801945f8:	ff 8d 00 00 	fcmpu   cr7,f13,f0
801945fc:	7d 20 00 26 	mfcr    r9
80194600:	55 29 ef fe 	rlwinm  r9,r9,29,31,31
80194604:	55 29 06 3e 	clrlwi  r9,r9,24
80194608:	69 29 00 01 	xori    r9,r9,1
8019460c:	55 29 06 3e 	clrlwi  r9,r9,24
80194610:	2f 89 00 00 	cmpwi   cr7,r9,0
80194614:	41 9e 00 1c 	beq     cr7,80194630 <_main+0x280>
80194618:	3d 20 80 19 	lis     r9,-32743
8019461c:	38 69 60 20 	addi    r3,r9,24608
80194620:	48 00 22 d1 	bl      801968f0 <print>
80194624:	3d 20 80 19 	lis     r9,-32743
80194628:	39 40 00 00 	li      r10,0
8019462c:	91 49 7a d0 	stw     r10,31440(r9)
80194630:	3d 20 80 19 	lis     r9,-32743
80194634:	83 c9 7a c8 	lwz     r30,31432(r9)
80194638:	3d 20 80 19 	lis     r9,-32743
8019463c:	c0 09 70 d4 	lfs     f0,28884(r9)
80194640:	d0 1f 00 60 	stfs    f0,96(r31)
80194644:	c0 1f 00 60 	lfs     f0,96(r31)
80194648:	3d 20 80 19 	lis     r9,-32743
8019464c:	c1 a9 71 6c 	lfs     f13,29036(r9)
80194650:	ff 80 68 00 	fcmpu   cr7,f0,f13
80194654:	41 9e 00 2c 	beq     cr7,80194680 <_main+0x2d0>
80194658:	3d 20 80 19 	lis     r9,-32743
8019465c:	81 29 7a c0 	lwz     r9,31424(r9)
80194660:	c0 3f 00 60 	lfs     f1,96(r31)
80194664:	7d 29 03 a6 	mtctr   r9
80194668:	4e 80 04 21 	bctrl
8019466c:	fc 00 08 90 	fmr     f0,f1
80194670:	3d 20 80 19 	lis     r9,-32743
80194674:	c1 a9 70 c8 	lfs     f13,28872(r9)
80194678:	ec 0d 00 24 	fdivs   f0,f13,f0
8019467c:	48 00 00 0c 	b       80194688 <_main+0x2d8>
80194680:	3d 20 80 19 	lis     r9,-32743
80194684:	c0 09 71 6c 	lfs     f0,29036(r9)
80194688:	fd a0 00 90 	fmr     f13,f0
8019468c:	3d 20 80 19 	lis     r9,-32743
80194690:	c0 09 70 d8 	lfs     f0,28888(r9)
80194694:	ec 0d 00 28 	fsubs   f0,f13,f0
80194698:	fc 20 00 90 	fmr     f1,f0
8019469c:	7f c9 03 a6 	mtctr   r30
801946a0:	4e 80 04 21 	bctrl
801946a4:	fd a0 08 90 	fmr     f13,f1
801946a8:	3d 20 80 19 	lis     r9,-32743
801946ac:	c0 09 70 d0 	lfs     f0,28880(r9)
801946b0:	ff 8d 00 00 	fcmpu   cr7,f13,f0
801946b4:	7d 20 00 26 	mfcr    r9
801946b8:	55 29 ef fe 	rlwinm  r9,r9,29,31,31
801946bc:	55 29 06 3e 	clrlwi  r9,r9,24
801946c0:	69 29 00 01 	xori    r9,r9,1
801946c4:	55 29 06 3e 	clrlwi  r9,r9,24
801946c8:	2f 89 00 00 	cmpwi   cr7,r9,0
801946cc:	41 9e 00 1c 	beq     cr7,801946e8 <_main+0x338>
801946d0:	3d 20 80 19 	lis     r9,-32743
801946d4:	38 69 60 44 	addi    r3,r9,24644
801946d8:	48 00 22 19 	bl      801968f0 <print>
801946dc:	3d 20 80 19 	lis     r9,-32743
801946e0:	39 40 00 00 	li      r10,0
801946e4:	91 49 7a d0 	stw     r10,31440(r9)
801946e8:	3d 20 80 19 	lis     r9,-32743
801946ec:	83 c9 7a c8 	lwz     r30,31432(r9)
801946f0:	3d 20 80 19 	lis     r9,-32743
801946f4:	c0 09 70 dc 	lfs     f0,28892(r9)
801946f8:	d0 1f 00 64 	stfs    f0,100(r31)
801946fc:	c0 1f 00 64 	lfs     f0,100(r31)
80194700:	3d 20 80 19 	lis     r9,-32743
80194704:	c1 a9 71 6c 	lfs     f13,29036(r9)
80194708:	ff 80 68 00 	fcmpu   cr7,f0,f13
8019470c:	41 9e 00 2c 	beq     cr7,80194738 <_main+0x388>
80194710:	3d 20 80 19 	lis     r9,-32743
80194714:	81 29 7a c0 	lwz     r9,31424(r9)
80194718:	c0 3f 00 64 	lfs     f1,100(r31)
8019471c:	7d 29 03 a6 	mtctr   r9
80194720:	4e 80 04 21 	bctrl
80194724:	fc 00 08 90 	fmr     f0,f1
80194728:	3d 20 80 19 	lis     r9,-32743
8019472c:	c1 a9 70 c8 	lfs     f13,28872(r9)
80194730:	ec 0d 00 24 	fdivs   f0,f13,f0
80194734:	48 00 00 0c 	b       80194740 <_main+0x390>
80194738:	3d 20 80 19 	lis     r9,-32743
8019473c:	c0 09 71 6c 	lfs     f0,29036(r9)
80194740:	fd a0 00 90 	fmr     f13,f0
80194744:	3d 20 80 19 	lis     r9,-32743
80194748:	c0 09 70 e0 	lfs     f0,28896(r9)
8019474c:	ec 0d 00 28 	fsubs   f0,f13,f0
80194750:	fc 20 00 90 	fmr     f1,f0
80194754:	7f c9 03 a6 	mtctr   r30
80194758:	4e 80 04 21 	bctrl
8019475c:	fd a0 08 90 	fmr     f13,f1
80194760:	3d 20 80 19 	lis     r9,-32743
80194764:	c0 09 70 d0 	lfs     f0,28880(r9)
80194768:	ff 8d 00 00 	fcmpu   cr7,f13,f0
8019476c:	7d 20 00 26 	mfcr    r9
80194770:	55 29 ef fe 	rlwinm  r9,r9,29,31,31
80194774:	55 29 06 3e 	clrlwi  r9,r9,24
80194778:	69 29 00 01 	xori    r9,r9,1
8019477c:	55 29 06 3e 	clrlwi  r9,r9,24
80194780:	2f 89 00 00 	cmpwi   cr7,r9,0
80194784:	41 9e 00 1c 	beq     cr7,801947a0 <_main+0x3f0>
80194788:	3d 20 80 19 	lis     r9,-32743
8019478c:	38 69 60 68 	addi    r3,r9,24680
80194790:	48 00 21 61 	bl      801968f0 <print>
80194794:	3d 20 80 19 	lis     r9,-32743
80194798:	39 40 00 00 	li      r10,0
8019479c:	91 49 7a d0 	stw     r10,31440(r9)
801947a0:	3d 20 80 19 	lis     r9,-32743
801947a4:	83 c9 7a c8 	lwz     r30,31432(r9)
801947a8:	3d 20 80 19 	lis     r9,-32743
801947ac:	c0 09 70 e4 	lfs     f0,28900(r9)
801947b0:	d0 1f 00 68 	stfs    f0,104(r31)
801947b4:	c0 1f 00 68 	lfs     f0,104(r31)
801947b8:	3d 20 80 19 	lis     r9,-32743
801947bc:	c1 a9 71 6c 	lfs     f13,29036(r9)
801947c0:	ff 80 68 00 	fcmpu   cr7,f0,f13
801947c4:	41 9e 00 2c 	beq     cr7,801947f0 <_main+0x440>
801947c8:	3d 20 80 19 	lis     r9,-32743
801947cc:	81 29 7a c0 	lwz     r9,31424(r9)
801947d0:	c0 3f 00 68 	lfs     f1,104(r31)
801947d4:	7d 29 03 a6 	mtctr   r9
801947d8:	4e 80 04 21 	bctrl
801947dc:	fc 00 08 90 	fmr     f0,f1
801947e0:	3d 20 80 19 	lis     r9,-32743
801947e4:	c1 a9 70 c8 	lfs     f13,28872(r9)
801947e8:	ec 0d 00 24 	fdivs   f0,f13,f0
801947ec:	48 00 00 0c 	b       801947f8 <_main+0x448>
801947f0:	3d 20 80 19 	lis     r9,-32743
801947f4:	c0 09 71 6c 	lfs     f0,29036(r9)
801947f8:	fd a0 00 90 	fmr     f13,f0
801947fc:	3d 20 80 19 	lis     r9,-32743
80194800:	c0 09 70 e8 	lfs     f0,28904(r9)
80194804:	ec 0d 00 28 	fsubs   f0,f13,f0
80194808:	fc 20 00 90 	fmr     f1,f0
8019480c:	7f c9 03 a6 	mtctr   r30
80194810:	4e 80 04 21 	bctrl
80194814:	fd a0 08 90 	fmr     f13,f1
80194818:	3d 20 80 19 	lis     r9,-32743
8019481c:	c0 09 70 d0 	lfs     f0,28880(r9)
80194820:	ff 8d 00 00 	fcmpu   cr7,f13,f0
80194824:	7d 20 00 26 	mfcr    r9
80194828:	55 29 ef fe 	rlwinm  r9,r9,29,31,31
8019482c:	55 29 06 3e 	clrlwi  r9,r9,24
80194830:	69 29 00 01 	xori    r9,r9,1
80194834:	55 29 06 3e 	clrlwi  r9,r9,24
80194838:	2f 89 00 00 	cmpwi   cr7,r9,0
8019483c:	41 9e 00 1c 	beq     cr7,80194858 <_main+0x4a8>
80194840:	3d 20 80 19 	lis     r9,-32743
80194844:	38 69 60 8c 	addi    r3,r9,24716
80194848:	48 00 20 a9 	bl      801968f0 <print>
8019484c:	3d 20 80 19 	lis     r9,-32743
80194850:	39 40 00 00 	li      r10,0
80194854:	91 49 7a d0 	stw     r10,31440(r9)
80194858:	3d 20 80 19 	lis     r9,-32743
8019485c:	c0 09 70 b8 	lfs     f0,28856(r9)
80194860:	fc 20 00 90 	fmr     f1,f0
80194864:	48 00 26 99 	bl      80196efc <floor>
80194868:	fd a0 08 90 	fmr     f13,f1
8019486c:	3d 20 80 19 	lis     r9,-32743
80194870:	c0 09 70 ec 	lfs     f0,28908(r9)
80194874:	ff 8d 00 00 	fcmpu   cr7,f13,f0
80194878:	41 9e 00 1c 	beq     cr7,80194894 <_main+0x4e4>
8019487c:	3d 20 80 19 	lis     r9,-32743
80194880:	38 69 60 b0 	addi    r3,r9,24752
80194884:	48 00 20 6d 	bl      801968f0 <print>
80194888:	3d 20 80 19 	lis     r9,-32743
8019488c:	39 40 00 00 	li      r10,0
80194890:	91 49 7a d0 	stw     r10,31440(r9)
80194894:	3d 20 80 19 	lis     r9,-32743
80194898:	c0 09 70 f0 	lfs     f0,28912(r9)
8019489c:	fc 20 00 90 	fmr     f1,f0
801948a0:	48 00 26 5d 	bl      80196efc <floor>
801948a4:	fd a0 08 90 	fmr     f13,f1
801948a8:	3d 20 80 19 	lis     r9,-32743
801948ac:	c0 09 70 f4 	lfs     f0,28916(r9)
801948b0:	ff 8d 00 00 	fcmpu   cr7,f13,f0
801948b4:	41 9e 00 1c 	beq     cr7,801948d0 <_main+0x520>
801948b8:	3d 20 80 19 	lis     r9,-32743
801948bc:	38 69 60 d4 	addi    r3,r9,24788
801948c0:	48 00 20 31 	bl      801968f0 <print>
801948c4:	3d 20 80 19 	lis     r9,-32743
801948c8:	39 40 00 00 	li      r10,0
801948cc:	91 49 7a d0 	stw     r10,31440(r9)
801948d0:	3d 20 80 19 	lis     r9,-32743
801948d4:	c0 09 70 f8 	lfs     f0,28920(r9)
801948d8:	fc 20 00 90 	fmr     f1,f0
801948dc:	48 00 26 21 	bl      80196efc <floor>
801948e0:	fd a0 08 90 	fmr     f13,f1
801948e4:	3d 20 80 19 	lis     r9,-32743
801948e8:	c0 09 70 fc 	lfs     f0,28924(r9)
801948ec:	ff 8d 00 00 	fcmpu   cr7,f13,f0
801948f0:	41 9e 00 1c 	beq     cr7,8019490c <_main+0x55c>
801948f4:	3d 20 80 19 	lis     r9,-32743
801948f8:	38 69 60 f8 	addi    r3,r9,24824
801948fc:	48 00 1f f5 	bl      801968f0 <print>
80194900:	3d 20 80 19 	lis     r9,-32743
80194904:	39 40 00 00 	li      r10,0
80194908:	91 49 7a d0 	stw     r10,31440(r9)
8019490c:	3d 20 80 19 	lis     r9,-32743
80194910:	c0 09 71 00 	lfs     f0,28928(r9)
80194914:	fc 20 00 90 	fmr     f1,f0
80194918:	48 00 25 e5 	bl      80196efc <floor>
8019491c:	fc 00 08 90 	fmr     f0,f1
80194920:	3d 20 80 19 	lis     r9,-32743
80194924:	c1 a9 71 6c 	lfs     f13,29036(r9)
80194928:	ff 80 68 00 	fcmpu   cr7,f0,f13
8019492c:	41 9e 00 1c 	beq     cr7,80194948 <_main+0x598>
80194930:	3d 20 80 19 	lis     r9,-32743
80194934:	38 69 61 1c 	addi    r3,r9,24860
80194938:	48 00 1f b9 	bl      801968f0 <print>
8019493c:	3d 20 80 19 	lis     r9,-32743
80194940:	39 40 00 00 	li      r10,0
80194944:	91 49 7a d0 	stw     r10,31440(r9)
80194948:	3d 20 80 19 	lis     r9,-32743
8019494c:	c0 09 70 b8 	lfs     f0,28856(r9)
80194950:	fc 20 00 90 	fmr     f1,f0
80194954:	48 00 2f ed 	bl      80197940 <ceil>
80194958:	fd a0 08 90 	fmr     f13,f1
8019495c:	3d 20 80 19 	lis     r9,-32743
80194960:	c0 09 71 04 	lfs     f0,28932(r9)
80194964:	ff 8d 00 00 	fcmpu   cr7,f13,f0
80194968:	41 9e 00 1c 	beq     cr7,80194984 <_main+0x5d4>
8019496c:	3d 20 80 19 	lis     r9,-32743
80194970:	38 69 61 40 	addi    r3,r9,24896
80194974:	48 00 1f 7d 	bl      801968f0 <print>
80194978:	3d 20 80 19 	lis     r9,-32743
8019497c:	39 40 00 00 	li      r10,0
80194980:	91 49 7a d0 	stw     r10,31440(r9)
80194984:	3d 20 80 19 	lis     r9,-32743
80194988:	c0 09 70 f0 	lfs     f0,28912(r9)
8019498c:	fc 20 00 90 	fmr     f1,f0
80194990:	48 00 2f b1 	bl      80197940 <ceil>
80194994:	fd a0 08 90 	fmr     f13,f1
80194998:	3d 20 80 19 	lis     r9,-32743
8019499c:	c0 09 71 08 	lfs     f0,28936(r9)
801949a0:	ff 8d 00 00 	fcmpu   cr7,f13,f0
801949a4:	41 9e 00 1c 	beq     cr7,801949c0 <_main+0x610>
801949a8:	3d 20 80 19 	lis     r9,-32743
801949ac:	38 69 61 64 	addi    r3,r9,24932
801949b0:	48 00 1f 41 	bl      801968f0 <print>
801949b4:	3d 20 80 19 	lis     r9,-32743
801949b8:	39 40 00 00 	li      r10,0
801949bc:	91 49 7a d0 	stw     r10,31440(r9)
801949c0:	3d 20 80 19 	lis     r9,-32743
801949c4:	c0 09 70 f8 	lfs     f0,28920(r9)
801949c8:	fc 20 00 90 	fmr     f1,f0
801949cc:	48 00 2f 75 	bl      80197940 <ceil>
801949d0:	fc 00 08 90 	fmr     f0,f1
801949d4:	3d 40 80 19 	lis     r10,-32743
801949d8:	c1 aa 71 6c 	lfs     f13,29036(r10)
801949dc:	ff 80 68 00 	fcmpu   cr7,f0,f13
801949e0:	41 9e 00 1c 	beq     cr7,801949fc <_main+0x64c>
801949e4:	3d 20 80 19 	lis     r9,-32743
801949e8:	38 69 61 88 	addi    r3,r9,24968
801949ec:	48 00 1f 05 	bl      801968f0 <print>
801949f0:	3d 20 80 19 	lis     r9,-32743
801949f4:	39 40 00 00 	li      r10,0
801949f8:	91 49 7a d0 	stw     r10,31440(r9)
801949fc:	3d 20 80 19 	lis     r9,-32743
80194a00:	c0 09 71 00 	lfs     f0,28928(r9)
80194a04:	fc 20 00 90 	fmr     f1,f0
80194a08:	48 00 2f 39 	bl      80197940 <ceil>
80194a0c:	fd a0 08 90 	fmr     f13,f1
80194a10:	3d 20 80 19 	lis     r9,-32743
80194a14:	c0 09 70 c8 	lfs     f0,28872(r9)
80194a18:	ff 8d 00 00 	fcmpu   cr7,f13,f0
80194a1c:	41 9e 00 1c 	beq     cr7,80194a38 <_main+0x688>
80194a20:	3d 20 80 19 	lis     r9,-32743
80194a24:	38 69 61 ac 	addi    r3,r9,25004
80194a28:	48 00 1e c9 	bl      801968f0 <print>
80194a2c:	3d 20 80 19 	lis     r9,-32743
80194a30:	39 40 00 00 	li      r10,0
80194a34:	91 49 7a d0 	stw     r10,31440(r9)
80194a38:	38 60 00 02 	li      r3,2
80194a3c:	38 80 00 02 	li      r4,2
80194a40:	48 00 2f e1 	bl      80197a20 <imax>
80194a44:	7c 69 1b 78 	mr      r9,r3
80194a48:	2f 89 00 02 	cmpwi   cr7,r9,2
80194a4c:	41 9e 00 1c 	beq     cr7,80194a68 <_main+0x6b8>
80194a50:	3d 20 80 19 	lis     r9,-32743
80194a54:	38 69 61 d0 	addi    r3,r9,25040
80194a58:	48 00 1e 99 	bl      801968f0 <print>
80194a5c:	3d 20 80 19 	lis     r9,-32743
80194a60:	39 40 00 00 	li      r10,0
80194a64:	91 49 7a d0 	stw     r10,31440(r9)
80194a68:	38 60 00 00 	li      r3,0
80194a6c:	38 80 00 04 	li      r4,4
80194a70:	48 00 2f b1 	bl      80197a20 <imax>
80194a74:	7c 69 1b 78 	mr      r9,r3
80194a78:	2f 89 00 04 	cmpwi   cr7,r9,4
80194a7c:	41 9e 00 1c 	beq     cr7,80194a98 <_main+0x6e8>
80194a80:	3d 20 80 19 	lis     r9,-32743
80194a84:	38 69 61 f4 	addi    r3,r9,25076
80194a88:	48 00 1e 69 	bl      801968f0 <print>
80194a8c:	3d 20 80 19 	lis     r9,-32743
80194a90:	39 40 00 00 	li      r10,0
80194a94:	91 49 7a d0 	stw     r10,31440(r9)
80194a98:	38 60 ff fd 	li      r3,-3
80194a9c:	38 80 00 00 	li      r4,0
80194aa0:	48 00 2f 81 	bl      80197a20 <imax>
80194aa4:	7c 69 1b 78 	mr      r9,r3
80194aa8:	2f 89 00 00 	cmpwi   cr7,r9,0
80194aac:	41 9e 00 1c 	beq     cr7,80194ac8 <_main+0x718>
80194ab0:	3d 20 80 19 	lis     r9,-32743
80194ab4:	38 69 62 18 	addi    r3,r9,25112
80194ab8:	48 00 1e 39 	bl      801968f0 <print>
80194abc:	3d 20 80 19 	lis     r9,-32743
80194ac0:	39 40 00 00 	li      r10,0
80194ac4:	91 49 7a d0 	stw     r10,31440(r9)
80194ac8:	38 60 ff ff 	li      r3,-1
80194acc:	38 80 00 01 	li      r4,1
80194ad0:	48 00 2f 51 	bl      80197a20 <imax>
80194ad4:	7c 69 1b 78 	mr      r9,r3
80194ad8:	2f 89 00 01 	cmpwi   cr7,r9,1
80194adc:	41 9e 00 1c 	beq     cr7,80194af8 <_main+0x748>
80194ae0:	3d 20 80 19 	lis     r9,-32743
80194ae4:	38 69 62 3c 	addi    r3,r9,25148
80194ae8:	48 00 1e 09 	bl      801968f0 <print>
80194aec:	3d 20 80 19 	lis     r9,-32743
80194af0:	39 40 00 00 	li      r10,0
80194af4:	91 49 7a d0 	stw     r10,31440(r9)
80194af8:	38 60 ff fc 	li      r3,-4
80194afc:	38 80 ff ff 	li      r4,-1
80194b00:	48 00 2f 21 	bl      80197a20 <imax>
80194b04:	7c 6a 1b 78 	mr      r10,r3
80194b08:	39 20 ff ff 	li      r9,-1
80194b0c:	7f 8a 48 00 	cmpw    cr7,r10,r9
80194b10:	41 9e 00 1c 	beq     cr7,80194b2c <_main+0x77c>
80194b14:	3d 20 80 19 	lis     r9,-32743
80194b18:	38 69 62 60 	addi    r3,r9,25184
80194b1c:	48 00 1d d5 	bl      801968f0 <print>
80194b20:	3d 20 80 19 	lis     r9,-32743
80194b24:	39 40 00 00 	li      r10,0
80194b28:	91 49 7a d0 	stw     r10,31440(r9)
80194b2c:	38 60 00 07 	li      r3,7
80194b30:	38 80 00 17 	li      r4,23
80194b34:	48 00 2e ed 	bl      80197a20 <imax>
80194b38:	7c 69 1b 78 	mr      r9,r3
80194b3c:	2f 89 00 17 	cmpwi   cr7,r9,23
80194b40:	41 9e 00 1c 	beq     cr7,80194b5c <_main+0x7ac>
80194b44:	3d 20 80 19 	lis     r9,-32743
80194b48:	38 69 62 84 	addi    r3,r9,25220
80194b4c:	48 00 1d a5 	bl      801968f0 <print>
80194b50:	3d 20 80 19 	lis     r9,-32743
80194b54:	39 40 00 00 	li      r10,0
80194b58:	91 49 7a d0 	stw     r10,31440(r9)
80194b5c:	38 60 00 02 	li      r3,2
80194b60:	38 80 00 02 	li      r4,2
80194b64:	48 00 2e a5 	bl      80197a08 <imin>
80194b68:	7c 69 1b 78 	mr      r9,r3
80194b6c:	2f 89 00 02 	cmpwi   cr7,r9,2
80194b70:	41 9e 00 1c 	beq     cr7,80194b8c <_main+0x7dc>
80194b74:	3d 20 80 19 	lis     r9,-32743
80194b78:	38 69 62 a8 	addi    r3,r9,25256
80194b7c:	48 00 1d 75 	bl      801968f0 <print>
80194b80:	3d 20 80 19 	lis     r9,-32743
80194b84:	39 40 00 00 	li      r10,0
80194b88:	91 49 7a d0 	stw     r10,31440(r9)
80194b8c:	38 60 00 00 	li      r3,0
80194b90:	38 80 00 04 	li      r4,4
80194b94:	48 00 2e 75 	bl      80197a08 <imin>
80194b98:	7c 69 1b 78 	mr      r9,r3
80194b9c:	2f 89 00 00 	cmpwi   cr7,r9,0
80194ba0:	41 9e 00 1c 	beq     cr7,80194bbc <_main+0x80c>
80194ba4:	3d 20 80 19 	lis     r9,-32743
80194ba8:	38 69 62 cc 	addi    r3,r9,25292
80194bac:	48 00 1d 45 	bl      801968f0 <print>
80194bb0:	3d 20 80 19 	lis     r9,-32743
80194bb4:	39 40 00 00 	li      r10,0
80194bb8:	91 49 7a d0 	stw     r10,31440(r9)
80194bbc:	38 60 ff fd 	li      r3,-3
80194bc0:	38 80 00 00 	li      r4,0
80194bc4:	48 00 2e 45 	bl      80197a08 <imin>
80194bc8:	7c 6a 1b 78 	mr      r10,r3
80194bcc:	39 20 ff fd 	li      r9,-3
80194bd0:	7f 8a 48 00 	cmpw    cr7,r10,r9
80194bd4:	41 9e 00 1c 	beq     cr7,80194bf0 <_main+0x840>
80194bd8:	3d 20 80 19 	lis     r9,-32743
80194bdc:	38 69 62 f0 	addi    r3,r9,25328
80194be0:	48 00 1d 11 	bl      801968f0 <print>
80194be4:	3d 20 80 19 	lis     r9,-32743
80194be8:	39 40 00 00 	li      r10,0
80194bec:	91 49 7a d0 	stw     r10,31440(r9)
80194bf0:	38 60 ff ff 	li      r3,-1
80194bf4:	38 80 00 01 	li      r4,1
80194bf8:	48 00 2e 11 	bl      80197a08 <imin>
80194bfc:	7c 6a 1b 78 	mr      r10,r3
80194c00:	39 20 ff ff 	li      r9,-1
80194c04:	7f 8a 48 00 	cmpw    cr7,r10,r9
80194c08:	41 9e 00 1c 	beq     cr7,80194c24 <_main+0x874>
80194c0c:	3d 20 80 19 	lis     r9,-32743
80194c10:	38 69 63 14 	addi    r3,r9,25364
80194c14:	48 00 1c dd 	bl      801968f0 <print>
80194c18:	3d 20 80 19 	lis     r9,-32743
80194c1c:	39 40 00 00 	li      r10,0
80194c20:	91 49 7a d0 	stw     r10,31440(r9)
80194c24:	38 60 ff fc 	li      r3,-4
80194c28:	38 80 ff ff 	li      r4,-1
80194c2c:	48 00 2d dd 	bl      80197a08 <imin>
80194c30:	7c 6a 1b 78 	mr      r10,r3
80194c34:	39 20 ff fc 	li      r9,-4
80194c38:	7f 8a 48 00 	cmpw    cr7,r10,r9
80194c3c:	41 9e 00 1c 	beq     cr7,80194c58 <_main+0x8a8>
80194c40:	3d 20 80 19 	lis     r9,-32743
80194c44:	38 69 63 38 	addi    r3,r9,25400
80194c48:	48 00 1c a9 	bl      801968f0 <print>
80194c4c:	3d 20 80 19 	lis     r9,-32743
80194c50:	39 40 00 00 	li      r10,0
80194c54:	91 49 7a d0 	stw     r10,31440(r9)
80194c58:	38 60 00 07 	li      r3,7
80194c5c:	38 80 00 17 	li      r4,23
80194c60:	48 00 2d a9 	bl      80197a08 <imin>
80194c64:	7c 69 1b 78 	mr      r9,r3
80194c68:	2f 89 00 07 	cmpwi   cr7,r9,7
80194c6c:	41 9e 00 1c 	beq     cr7,80194c88 <_main+0x8d8>
80194c70:	3d 20 80 19 	lis     r9,-32743
80194c74:	38 69 63 5c 	addi    r3,r9,25436
80194c78:	48 00 1c 79 	bl      801968f0 <print>
80194c7c:	3d 20 80 19 	lis     r9,-32743
80194c80:	39 40 00 00 	li      r10,0
80194c84:	91 49 7a d0 	stw     r10,31440(r9)
80194c88:	3d 20 80 19 	lis     r9,-32743
80194c8c:	c1 a9 71 0c 	lfs     f13,28940(r9)
80194c90:	3d 20 80 19 	lis     r9,-32743
80194c94:	c0 09 71 0c 	lfs     f0,28940(r9)
80194c98:	fc 20 68 90 	fmr     f1,f13
80194c9c:	fc 40 00 90 	fmr     f2,f0
80194ca0:	48 00 2d 99 	bl      80197a38 <fmax>
80194ca4:	fd a0 08 90 	fmr     f13,f1
80194ca8:	3d 20 80 19 	lis     r9,-32743
80194cac:	c0 09 71 0c 	lfs     f0,28940(r9)
80194cb0:	ff 8d 00 00 	fcmpu   cr7,f13,f0
80194cb4:	41 9e 00 1c 	beq     cr7,80194cd0 <_main+0x920>
80194cb8:	3d 20 80 19 	lis     r9,-32743
80194cbc:	38 69 63 80 	addi    r3,r9,25472
80194cc0:	48 00 1c 31 	bl      801968f0 <print>
80194cc4:	3d 20 80 19 	lis     r9,-32743
80194cc8:	39 40 00 00 	li      r10,0
80194ccc:	91 49 7a d0 	stw     r10,31440(r9)
80194cd0:	3d 20 80 19 	lis     r9,-32743
80194cd4:	c0 09 71 10 	lfs     f0,28944(r9)
80194cd8:	3d 20 80 19 	lis     r9,-32743
80194cdc:	c0 29 71 6c 	lfs     f1,29036(r9)
80194ce0:	fc 40 00 90 	fmr     f2,f0
80194ce4:	48 00 2d 55 	bl      80197a38 <fmax>
80194ce8:	fd a0 08 90 	fmr     f13,f1
80194cec:	3d 20 80 19 	lis     r9,-32743
80194cf0:	c0 09 71 10 	lfs     f0,28944(r9)
80194cf4:	ff 8d 00 00 	fcmpu   cr7,f13,f0
80194cf8:	41 9e 00 1c 	beq     cr7,80194d14 <_main+0x964>
80194cfc:	3d 20 80 19 	lis     r9,-32743
80194d00:	38 69 63 a4 	addi    r3,r9,25508
80194d04:	48 00 1b ed 	bl      801968f0 <print>
80194d08:	3d 20 80 19 	lis     r9,-32743
80194d0c:	39 40 00 00 	li      r10,0
80194d10:	91 49 7a d0 	stw     r10,31440(r9)
80194d14:	3d 20 80 19 	lis     r9,-32743
80194d18:	c1 a9 71 14 	lfs     f13,28948(r9)
80194d1c:	3d 20 80 19 	lis     r9,-32743
80194d20:	c0 09 71 18 	lfs     f0,28952(r9)
80194d24:	fc 20 68 90 	fmr     f1,f13
80194d28:	fc 40 00 90 	fmr     f2,f0
80194d2c:	48 00 2d 0d 	bl      80197a38 <fmax>
80194d30:	fd a0 08 90 	fmr     f13,f1
80194d34:	3d 20 80 19 	lis     r9,-32743
80194d38:	c0 09 71 18 	lfs     f0,28952(r9)
80194d3c:	ff 8d 00 00 	fcmpu   cr7,f13,f0
80194d40:	41 9e 00 1c 	beq     cr7,80194d5c <_main+0x9ac>
80194d44:	3d 20 80 19 	lis     r9,-32743
80194d48:	38 69 63 c8 	addi    r3,r9,25544
80194d4c:	48 00 1b a5 	bl      801968f0 <print>
80194d50:	3d 20 80 19 	lis     r9,-32743
80194d54:	39 40 00 00 	li      r10,0
80194d58:	91 49 7a d0 	stw     r10,31440(r9)
80194d5c:	3d 20 80 19 	lis     r9,-32743
80194d60:	c0 09 71 1c 	lfs     f0,28956(r9)
80194d64:	fc 20 00 90 	fmr     f1,f0
80194d68:	3d 40 80 19 	lis     r10,-32743
80194d6c:	c0 4a 71 6c 	lfs     f2,29036(r10)
80194d70:	48 00 2c c9 	bl      80197a38 <fmax>
80194d74:	fc 00 08 90 	fmr     f0,f1
80194d78:	3d 20 80 19 	lis     r9,-32743
80194d7c:	c1 a9 71 6c 	lfs     f13,29036(r9)
80194d80:	ff 80 68 00 	fcmpu   cr7,f0,f13
80194d84:	41 9e 00 1c 	beq     cr7,80194da0 <_main+0x9f0>
80194d88:	3d 20 80 19 	lis     r9,-32743
80194d8c:	38 69 63 ec 	addi    r3,r9,25580
80194d90:	48 00 1b 61 	bl      801968f0 <print>
80194d94:	3d 20 80 19 	lis     r9,-32743
80194d98:	39 40 00 00 	li      r10,0
80194d9c:	91 49 7a d0 	stw     r10,31440(r9)
80194da0:	3d 20 80 19 	lis     r9,-32743
80194da4:	c1 a9 71 20 	lfs     f13,28960(r9)
80194da8:	3d 20 80 19 	lis     r9,-32743
80194dac:	c0 09 71 24 	lfs     f0,28964(r9)
80194db0:	fc 20 68 90 	fmr     f1,f13
80194db4:	fc 40 00 90 	fmr     f2,f0
80194db8:	48 00 2c 81 	bl      80197a38 <fmax>
80194dbc:	fd a0 08 90 	fmr     f13,f1
80194dc0:	3d 20 80 19 	lis     r9,-32743
80194dc4:	c0 09 71 24 	lfs     f0,28964(r9)
80194dc8:	ff 8d 00 00 	fcmpu   cr7,f13,f0
80194dcc:	41 9e 00 1c 	beq     cr7,80194de8 <_main+0xa38>
80194dd0:	3d 20 80 19 	lis     r9,-32743
80194dd4:	38 69 64 10 	addi    r3,r9,25616
80194dd8:	48 00 1b 19 	bl      801968f0 <print>
80194ddc:	3d 20 80 19 	lis     r9,-32743
80194de0:	39 40 00 00 	li      r10,0
80194de4:	91 49 7a d0 	stw     r10,31440(r9)
80194de8:	3d 20 80 19 	lis     r9,-32743
80194dec:	c1 a9 71 28 	lfs     f13,28968(r9)
80194df0:	3d 20 80 19 	lis     r9,-32743
80194df4:	c0 09 71 2c 	lfs     f0,28972(r9)
80194df8:	fc 20 68 90 	fmr     f1,f13
80194dfc:	fc 40 00 90 	fmr     f2,f0
80194e00:	48 00 2c 39 	bl      80197a38 <fmax>
80194e04:	fd a0 08 90 	fmr     f13,f1
80194e08:	3d 20 80 19 	lis     r9,-32743
80194e0c:	c0 09 71 2c 	lfs     f0,28972(r9)
80194e10:	ff 8d 00 00 	fcmpu   cr7,f13,f0
80194e14:	41 9e 00 1c 	beq     cr7,80194e30 <_main+0xa80>
80194e18:	3d 20 80 19 	lis     r9,-32743
80194e1c:	38 69 64 34 	addi    r3,r9,25652
80194e20:	48 00 1a d1 	bl      801968f0 <print>
80194e24:	3d 20 80 19 	lis     r9,-32743
80194e28:	39 40 00 00 	li      r10,0
80194e2c:	91 49 7a d0 	stw     r10,31440(r9)
80194e30:	3d 20 80 19 	lis     r9,-32743
80194e34:	c1 a9 71 0c 	lfs     f13,28940(r9)
80194e38:	3d 20 80 19 	lis     r9,-32743
80194e3c:	c0 09 71 0c 	lfs     f0,28940(r9)
80194e40:	fc 20 68 90 	fmr     f1,f13
80194e44:	fc 40 00 90 	fmr     f2,f0
80194e48:	48 00 2c 05 	bl      80197a4c <fmin>
80194e4c:	fd a0 08 90 	fmr     f13,f1
80194e50:	3d 20 80 19 	lis     r9,-32743
80194e54:	c0 09 71 0c 	lfs     f0,28940(r9)
80194e58:	ff 8d 00 00 	fcmpu   cr7,f13,f0
80194e5c:	41 9e 00 1c 	beq     cr7,80194e78 <_main+0xac8>
80194e60:	3d 20 80 19 	lis     r9,-32743
80194e64:	38 69 64 58 	addi    r3,r9,25688
80194e68:	48 00 1a 89 	bl      801968f0 <print>
80194e6c:	3d 20 80 19 	lis     r9,-32743
80194e70:	39 40 00 00 	li      r10,0
80194e74:	91 49 7a d0 	stw     r10,31440(r9)
80194e78:	3d 20 80 19 	lis     r9,-32743
80194e7c:	c1 a9 71 28 	lfs     f13,28968(r9)
80194e80:	3d 20 80 19 	lis     r9,-32743
80194e84:	c0 09 71 2c 	lfs     f0,28972(r9)
80194e88:	fc 20 68 90 	fmr     f1,f13
80194e8c:	fc 40 00 90 	fmr     f2,f0
80194e90:	48 00 2b bd 	bl      80197a4c <fmin>
80194e94:	fd a0 08 90 	fmr     f13,f1
80194e98:	3d 20 80 19 	lis     r9,-32743
80194e9c:	c0 09 71 28 	lfs     f0,28968(r9)
80194ea0:	ff 8d 00 00 	fcmpu   cr7,f13,f0
80194ea4:	41 9e 00 1c 	beq     cr7,80194ec0 <_main+0xb10>
80194ea8:	3d 20 80 19 	lis     r9,-32743
80194eac:	38 69 64 7c 	addi    r3,r9,25724
80194eb0:	48 00 1a 41 	bl      801968f0 <print>
80194eb4:	3d 20 80 19 	lis     r9,-32743
80194eb8:	39 40 00 00 	li      r10,0
80194ebc:	91 49 7a d0 	stw     r10,31440(r9)
80194ec0:	3d 20 80 19 	lis     r9,-32743
80194ec4:	c0 09 71 10 	lfs     f0,28944(r9)
80194ec8:	3d 40 80 19 	lis     r10,-32743
80194ecc:	c0 2a 71 6c 	lfs     f1,29036(r10)
80194ed0:	fc 40 00 90 	fmr     f2,f0
80194ed4:	48 00 2b 79 	bl      80197a4c <fmin>
80194ed8:	fc 00 08 90 	fmr     f0,f1
80194edc:	3d 20 80 19 	lis     r9,-32743
80194ee0:	c1 a9 71 6c 	lfs     f13,29036(r9)
80194ee4:	ff 80 68 00 	fcmpu   cr7,f0,f13
80194ee8:	41 9e 00 1c 	beq     cr7,80194f04 <_main+0xb54>
80194eec:	3d 20 80 19 	lis     r9,-32743
80194ef0:	38 69 64 a0 	addi    r3,r9,25760
80194ef4:	48 00 19 fd 	bl      801968f0 <print>
80194ef8:	3d 20 80 19 	lis     r9,-32743
80194efc:	39 40 00 00 	li      r10,0
80194f00:	91 49 7a d0 	stw     r10,31440(r9)
80194f04:	3d 20 80 19 	lis     r9,-32743
80194f08:	c0 09 71 1c 	lfs     f0,28956(r9)
80194f0c:	fc 20 00 90 	fmr     f1,f0
80194f10:	3d 40 80 19 	lis     r10,-32743
80194f14:	c0 4a 71 6c 	lfs     f2,29036(r10)
80194f18:	48 00 2b 35 	bl      80197a4c <fmin>
80194f1c:	fd a0 08 90 	fmr     f13,f1
80194f20:	3d 20 80 19 	lis     r9,-32743
80194f24:	c0 09 71 1c 	lfs     f0,28956(r9)
80194f28:	ff 8d 00 00 	fcmpu   cr7,f13,f0
80194f2c:	41 9e 00 1c 	beq     cr7,80194f48 <_main+0xb98>
80194f30:	3d 20 80 19 	lis     r9,-32743
80194f34:	38 69 64 c4 	addi    r3,r9,25796
80194f38:	48 00 19 b9 	bl      801968f0 <print>
80194f3c:	3d 20 80 19 	lis     r9,-32743
80194f40:	39 40 00 00 	li      r10,0
80194f44:	91 49 7a d0 	stw     r10,31440(r9)
80194f48:	3d 20 80 19 	lis     r9,-32743
80194f4c:	c1 a9 71 20 	lfs     f13,28960(r9)
80194f50:	3d 20 80 19 	lis     r9,-32743
80194f54:	c0 09 71 24 	lfs     f0,28964(r9)
80194f58:	fc 20 68 90 	fmr     f1,f13
80194f5c:	fc 40 00 90 	fmr     f2,f0
80194f60:	48 00 2a ed 	bl      80197a4c <fmin>
80194f64:	fd a0 08 90 	fmr     f13,f1
80194f68:	3d 20 80 19 	lis     r9,-32743
80194f6c:	c0 09 71 20 	lfs     f0,28960(r9)
80194f70:	ff 8d 00 00 	fcmpu   cr7,f13,f0
80194f74:	41 9e 00 1c 	beq     cr7,80194f90 <_main+0xbe0>
80194f78:	3d 20 80 19 	lis     r9,-32743
80194f7c:	38 69 64 e8 	addi    r3,r9,25832
80194f80:	48 00 19 71 	bl      801968f0 <print>
80194f84:	3d 20 80 19 	lis     r9,-32743
80194f88:	39 40 00 00 	li      r10,0
80194f8c:	91 49 7a d0 	stw     r10,31440(r9)
80194f90:	3d 20 80 19 	lis     r9,-32743
80194f94:	c1 a9 71 14 	lfs     f13,28948(r9)
80194f98:	3d 20 80 19 	lis     r9,-32743
80194f9c:	c0 09 71 18 	lfs     f0,28952(r9)
80194fa0:	fc 20 68 90 	fmr     f1,f13
80194fa4:	fc 40 00 90 	fmr     f2,f0
80194fa8:	48 00 2a a5 	bl      80197a4c <fmin>
80194fac:	fd a0 08 90 	fmr     f13,f1
80194fb0:	3d 20 80 19 	lis     r9,-32743
80194fb4:	c0 09 71 14 	lfs     f0,28948(r9)
80194fb8:	ff 8d 00 00 	fcmpu   cr7,f13,f0
80194fbc:	41 9e 00 1c 	beq     cr7,80194fd8 <_main+0xc28>
80194fc0:	3d 20 80 19 	lis     r9,-32743
80194fc4:	38 69 65 0c 	addi    r3,r9,25868
80194fc8:	48 00 19 29 	bl      801968f0 <print>
80194fcc:	3d 20 80 19 	lis     r9,-32743
80194fd0:	39 40 00 00 	li      r10,0
80194fd4:	91 49 7a d0 	stw     r10,31440(r9)
80194fd8:	38 60 00 00 	li      r3,0
80194fdc:	38 80 00 05 	li      r4,5
80194fe0:	48 00 26 79 	bl      80197658 <ipow>
80194fe4:	7c 69 1b 78 	mr      r9,r3
80194fe8:	2f 89 00 00 	cmpwi   cr7,r9,0
80194fec:	41 9e 00 1c 	beq     cr7,80195008 <_main+0xc58>
80194ff0:	3d 20 80 19 	lis     r9,-32743
80194ff4:	38 69 65 30 	addi    r3,r9,25904
80194ff8:	48 00 18 f9 	bl      801968f0 <print>
80194ffc:	3d 20 80 19 	lis     r9,-32743
80195000:	39 40 00 00 	li      r10,0
80195004:	91 49 7a d0 	stw     r10,31440(r9)
80195008:	38 60 00 01 	li      r3,1
8019500c:	38 80 00 0e 	li      r4,14
80195010:	48 00 26 49 	bl      80197658 <ipow>
80195014:	7c 69 1b 78 	mr      r9,r3
80195018:	2f 89 00 01 	cmpwi   cr7,r9,1
8019501c:	41 9e 00 1c 	beq     cr7,80195038 <_main+0xc88>
80195020:	3d 20 80 19 	lis     r9,-32743
80195024:	38 69 65 54 	addi    r3,r9,25940
80195028:	48 00 18 c9 	bl      801968f0 <print>
8019502c:	3d 20 80 19 	lis     r9,-32743
80195030:	39 40 00 00 	li      r10,0
80195034:	91 49 7a d0 	stw     r10,31440(r9)
80195038:	38 60 00 02 	li      r3,2
8019503c:	38 80 00 02 	li      r4,2
80195040:	48 00 26 19 	bl      80197658 <ipow>
80195044:	7c 69 1b 78 	mr      r9,r3
80195048:	2f 89 00 04 	cmpwi   cr7,r9,4
8019504c:	41 9e 00 1c 	beq     cr7,80195068 <_main+0xcb8>
80195050:	3d 20 80 19 	lis     r9,-32743
80195054:	38 69 65 78 	addi    r3,r9,25976
80195058:	48 00 18 99 	bl      801968f0 <print>
8019505c:	3d 20 80 19 	lis     r9,-32743
80195060:	39 40 00 00 	li      r10,0
80195064:	91 49 7a d0 	stw     r10,31440(r9)
80195068:	38 60 00 03 	li      r3,3
8019506c:	38 80 00 03 	li      r4,3
80195070:	48 00 25 e9 	bl      80197658 <ipow>
80195074:	7c 69 1b 78 	mr      r9,r3
80195078:	2f 89 00 1b 	cmpwi   cr7,r9,27
8019507c:	41 9e 00 1c 	beq     cr7,80195098 <_main+0xce8>
80195080:	3d 20 80 19 	lis     r9,-32743
80195084:	38 69 65 9c 	addi    r3,r9,26012
80195088:	48 00 18 69 	bl      801968f0 <print>
8019508c:	3d 20 80 19 	lis     r9,-32743
80195090:	39 40 00 00 	li      r10,0
80195094:	91 49 7a d0 	stw     r10,31440(r9)
80195098:	38 60 00 19 	li      r3,25
8019509c:	38 80 00 02 	li      r4,2
801950a0:	48 00 25 b9 	bl      80197658 <ipow>
801950a4:	7c 69 1b 78 	mr      r9,r3
801950a8:	2f 89 02 71 	cmpwi   cr7,r9,625
801950ac:	41 9e 00 1c 	beq     cr7,801950c8 <_main+0xd18>
801950b0:	3d 20 80 19 	lis     r9,-32743
801950b4:	38 69 65 c0 	addi    r3,r9,26048
801950b8:	48 00 18 39 	bl      801968f0 <print>
801950bc:	3d 20 80 19 	lis     r9,-32743
801950c0:	39 40 00 00 	li      r10,0
801950c4:	91 49 7a d0 	stw     r10,31440(r9)
801950c8:	38 60 ff ff 	li      r3,-1
801950cc:	38 80 00 03 	li      r4,3
801950d0:	48 00 25 89 	bl      80197658 <ipow>
801950d4:	7c 6a 1b 78 	mr      r10,r3
801950d8:	39 20 ff ff 	li      r9,-1
801950dc:	7f 8a 48 00 	cmpw    cr7,r10,r9
801950e0:	41 9e 00 1c 	beq     cr7,801950fc <_main+0xd4c>
801950e4:	3d 20 80 19 	lis     r9,-32743
801950e8:	38 69 65 e4 	addi    r3,r9,26084
801950ec:	48 00 18 05 	bl      801968f0 <print>
801950f0:	3d 20 80 19 	lis     r9,-32743
801950f4:	39 40 00 00 	li      r10,0
801950f8:	91 49 7a d0 	stw     r10,31440(r9)
801950fc:	38 60 ff fe 	li      r3,-2
80195100:	38 80 00 02 	li      r4,2
80195104:	48 00 25 55 	bl      80197658 <ipow>
80195108:	7c 69 1b 78 	mr      r9,r3
8019510c:	2f 89 00 04 	cmpwi   cr7,r9,4
80195110:	41 9e 00 1c 	beq     cr7,8019512c <_main+0xd7c>
80195114:	3d 20 80 19 	lis     r9,-32743
80195118:	38 69 66 08 	addi    r3,r9,26120
8019511c:	48 00 17 d5 	bl      801968f0 <print>
80195120:	3d 20 80 19 	lis     r9,-32743
80195124:	39 40 00 00 	li      r10,0
80195128:	91 49 7a d0 	stw     r10,31440(r9)
8019512c:	3d 20 80 19 	lis     r9,-32743
80195130:	83 c9 7a c8 	lwz     r30,31432(r9)
80195134:	3d 20 80 19 	lis     r9,-32743
80195138:	c0 29 71 6c 	lfs     f1,29036(r9)
8019513c:	38 60 00 02 	li      r3,2
80195140:	48 00 25 99 	bl      801976d8 <fpow>
80195144:	fc 00 08 90 	fmr     f0,f1
80195148:	fc 20 00 90 	fmr     f1,f0
8019514c:	7f c9 03 a6 	mtctr   r30
80195150:	4e 80 04 21 	bctrl
80195154:	fd a0 08 90 	fmr     f13,f1
80195158:	3d 20 80 19 	lis     r9,-32743
8019515c:	c0 09 70 d0 	lfs     f0,28880(r9)
80195160:	ff 8d 00 00 	fcmpu   cr7,f13,f0
80195164:	7d 20 00 26 	mfcr    r9
80195168:	55 29 ef fe 	rlwinm  r9,r9,29,31,31
8019516c:	55 29 06 3e 	clrlwi  r9,r9,24
80195170:	69 29 00 01 	xori    r9,r9,1
80195174:	55 29 06 3e 	clrlwi  r9,r9,24
80195178:	2f 89 00 00 	cmpwi   cr7,r9,0
8019517c:	41 9e 00 1c 	beq     cr7,80195198 <_main+0xde8>
80195180:	3d 20 80 19 	lis     r9,-32743
80195184:	38 69 66 2c 	addi    r3,r9,26156
80195188:	48 00 17 69 	bl      801968f0 <print>
8019518c:	3d 20 80 19 	lis     r9,-32743
80195190:	39 40 00 00 	li      r10,0
80195194:	91 49 7a d0 	stw     r10,31440(r9)
80195198:	3d 20 80 19 	lis     r9,-32743
8019519c:	83 c9 7a c8 	lwz     r30,31432(r9)
801951a0:	3d 20 80 19 	lis     r9,-32743
801951a4:	c0 09 71 30 	lfs     f0,28976(r9)
801951a8:	fc 20 00 90 	fmr     f1,f0
801951ac:	38 60 00 02 	li      r3,2
801951b0:	48 00 25 29 	bl      801976d8 <fpow>
801951b4:	fd a0 08 90 	fmr     f13,f1
801951b8:	3d 20 80 19 	lis     r9,-32743
801951bc:	c0 09 71 34 	lfs     f0,28980(r9)
801951c0:	ec 0d 00 28 	fsubs   f0,f13,f0
801951c4:	fc 20 00 90 	fmr     f1,f0
801951c8:	7f c9 03 a6 	mtctr   r30
801951cc:	4e 80 04 21 	bctrl
801951d0:	fd a0 08 90 	fmr     f13,f1
801951d4:	3d 20 80 19 	lis     r9,-32743
801951d8:	c0 09 70 d0 	lfs     f0,28880(r9)
801951dc:	ff 8d 00 00 	fcmpu   cr7,f13,f0
801951e0:	7d 20 00 26 	mfcr    r9
801951e4:	55 29 ef fe 	rlwinm  r9,r9,29,31,31
801951e8:	55 29 06 3e 	clrlwi  r9,r9,24
801951ec:	69 29 00 01 	xori    r9,r9,1
801951f0:	55 29 06 3e 	clrlwi  r9,r9,24
801951f4:	2f 89 00 00 	cmpwi   cr7,r9,0
801951f8:	41 9e 00 1c 	beq     cr7,80195214 <_main+0xe64>
801951fc:	3d 20 80 19 	lis     r9,-32743
80195200:	38 69 66 50 	addi    r3,r9,26192
80195204:	48 00 16 ed 	bl      801968f0 <print>
80195208:	3d 20 80 19 	lis     r9,-32743
8019520c:	39 40 00 00 	li      r10,0
80195210:	91 49 7a d0 	stw     r10,31440(r9)
80195214:	3d 20 80 19 	lis     r9,-32743
80195218:	83 c9 7a c8 	lwz     r30,31432(r9)
8019521c:	3d 20 80 19 	lis     r9,-32743
80195220:	c0 09 71 38 	lfs     f0,28984(r9)
80195224:	fc 20 00 90 	fmr     f1,f0
80195228:	38 60 00 02 	li      r3,2
8019522c:	48 00 24 ad 	bl      801976d8 <fpow>
80195230:	fd a0 08 90 	fmr     f13,f1
80195234:	3d 20 80 19 	lis     r9,-32743
80195238:	c0 09 71 3c 	lfs     f0,28988(r9)
8019523c:	ec 0d 00 28 	fsubs   f0,f13,f0
80195240:	fc 20 00 90 	fmr     f1,f0
80195244:	7f c9 03 a6 	mtctr   r30
80195248:	4e 80 04 21 	bctrl
8019524c:	fd a0 08 90 	fmr     f13,f1
80195250:	3d 20 80 19 	lis     r9,-32743
80195254:	c0 09 70 d0 	lfs     f0,28880(r9)
80195258:	ff 8d 00 00 	fcmpu   cr7,f13,f0
8019525c:	7d 20 00 26 	mfcr    r9
80195260:	55 29 ef fe 	rlwinm  r9,r9,29,31,31
80195264:	55 29 06 3e 	clrlwi  r9,r9,24
80195268:	69 29 00 01 	xori    r9,r9,1
8019526c:	55 29 06 3e 	clrlwi  r9,r9,24
80195270:	2f 89 00 00 	cmpwi   cr7,r9,0
80195274:	41 9e 00 1c 	beq     cr7,80195290 <_main+0xee0>
80195278:	3d 20 80 19 	lis     r9,-32743
8019527c:	38 69 66 74 	addi    r3,r9,26228
80195280:	48 00 16 71 	bl      801968f0 <print>
80195284:	3d 20 80 19 	lis     r9,-32743
80195288:	39 40 00 00 	li      r10,0
8019528c:	91 49 7a d0 	stw     r10,31440(r9)
80195290:	3d 20 80 19 	lis     r9,-32743
80195294:	83 c9 7a c8 	lwz     r30,31432(r9)
80195298:	3d 20 80 19 	lis     r9,-32743
8019529c:	c0 09 71 40 	lfs     f0,28992(r9)
801952a0:	fc 20 00 90 	fmr     f1,f0
801952a4:	38 60 00 03 	li      r3,3
801952a8:	48 00 24 31 	bl      801976d8 <fpow>
801952ac:	fd a0 08 90 	fmr     f13,f1
801952b0:	3d 20 80 19 	lis     r9,-32743
801952b4:	c0 09 71 44 	lfs     f0,28996(r9)
801952b8:	ec 0d 00 2a 	fadds   f0,f13,f0
801952bc:	fc 20 00 90 	fmr     f1,f0
801952c0:	7f c9 03 a6 	mtctr   r30
801952c4:	4e 80 04 21 	bctrl
801952c8:	fd a0 08 90 	fmr     f13,f1
801952cc:	3d 20 80 19 	lis     r9,-32743
801952d0:	c0 09 70 d0 	lfs     f0,28880(r9)
801952d4:	ff 8d 00 00 	fcmpu   cr7,f13,f0
801952d8:	7d 20 00 26 	mfcr    r9
801952dc:	55 29 ef fe 	rlwinm  r9,r9,29,31,31
801952e0:	55 29 06 3e 	clrlwi  r9,r9,24
801952e4:	69 29 00 01 	xori    r9,r9,1
801952e8:	55 29 06 3e 	clrlwi  r9,r9,24
801952ec:	2f 89 00 00 	cmpwi   cr7,r9,0
801952f0:	41 9e 00 1c 	beq     cr7,8019530c <_main+0xf5c>
801952f4:	3d 20 80 19 	lis     r9,-32743
801952f8:	38 69 66 98 	addi    r3,r9,26264
801952fc:	48 00 15 f5 	bl      801968f0 <print>
80195300:	3d 20 80 19 	lis     r9,-32743
80195304:	39 40 00 00 	li      r10,0
80195308:	91 49 7a d0 	stw     r10,31440(r9)
8019530c:	3d 20 80 19 	lis     r9,-32743
80195310:	83 c9 7a c8 	lwz     r30,31432(r9)
80195314:	3d 20 80 19 	lis     r9,-32743
80195318:	c0 09 71 48 	lfs     f0,29000(r9)
8019531c:	fc 20 00 90 	fmr     f1,f0
80195320:	38 60 00 04 	li      r3,4
80195324:	48 00 23 b5 	bl      801976d8 <fpow>
80195328:	fd a0 08 90 	fmr     f13,f1
8019532c:	3d 20 80 19 	lis     r9,-32743
80195330:	c0 09 71 4c 	lfs     f0,29004(r9)
80195334:	ec 0d 00 28 	fsubs   f0,f13,f0
80195338:	fc 20 00 90 	fmr     f1,f0
8019533c:	7f c9 03 a6 	mtctr   r30
80195340:	4e 80 04 21 	bctrl
80195344:	fd a0 08 90 	fmr     f13,f1
80195348:	3d 20 80 19 	lis     r9,-32743
8019534c:	c0 09 70 d0 	lfs     f0,28880(r9)
80195350:	ff 8d 00 00 	fcmpu   cr7,f13,f0
80195354:	7d 20 00 26 	mfcr    r9
80195358:	55 29 ef fe 	rlwinm  r9,r9,29,31,31
8019535c:	55 29 06 3e 	clrlwi  r9,r9,24
80195360:	69 29 00 01 	xori    r9,r9,1
80195364:	55 29 06 3e 	clrlwi  r9,r9,24
80195368:	2f 89 00 00 	cmpwi   cr7,r9,0
8019536c:	41 9e 00 1c 	beq     cr7,80195388 <_main+0xfd8>
80195370:	3d 20 80 19 	lis     r9,-32743
80195374:	38 69 66 bc 	addi    r3,r9,26300
80195378:	48 00 15 79 	bl      801968f0 <print>
8019537c:	3d 20 80 19 	lis     r9,-32743
80195380:	39 40 00 00 	li      r10,0
80195384:	91 49 7a d0 	stw     r10,31440(r9)
80195388:	3d 20 80 19 	lis     r9,-32743
8019538c:	83 c9 7a c8 	lwz     r30,31432(r9)
80195390:	3d 20 80 19 	lis     r9,-32743
80195394:	c0 09 71 50 	lfs     f0,29008(r9)
80195398:	fc 20 00 90 	fmr     f1,f0
8019539c:	38 60 00 02 	li      r3,2
801953a0:	48 00 23 39 	bl      801976d8 <fpow>
801953a4:	fd a0 08 90 	fmr     f13,f1
801953a8:	3d 20 80 19 	lis     r9,-32743
801953ac:	c0 09 71 54 	lfs     f0,29012(r9)
801953b0:	ec 0d 00 28 	fsubs   f0,f13,f0
801953b4:	fc 20 00 90 	fmr     f1,f0
801953b8:	7f c9 03 a6 	mtctr   r30
801953bc:	4e 80 04 21 	bctrl
801953c0:	fd a0 08 90 	fmr     f13,f1
801953c4:	3d 20 80 19 	lis     r9,-32743
801953c8:	c0 09 70 d0 	lfs     f0,28880(r9)
801953cc:	ff 8d 00 00 	fcmpu   cr7,f13,f0
801953d0:	7d 20 00 26 	mfcr    r9
801953d4:	55 29 ef fe 	rlwinm  r9,r9,29,31,31
801953d8:	55 29 06 3e 	clrlwi  r9,r9,24
801953dc:	69 29 00 01 	xori    r9,r9,1
801953e0:	55 29 06 3e 	clrlwi  r9,r9,24
801953e4:	2f 89 00 00 	cmpwi   cr7,r9,0
801953e8:	41 9e 00 1c 	beq     cr7,80195404 <_main+0x1054>
801953ec:	3d 20 80 19 	lis     r9,-32743
801953f0:	38 69 66 e0 	addi    r3,r9,26336
801953f4:	48 00 14 fd 	bl      801968f0 <print>
801953f8:	3d 20 80 19 	lis     r9,-32743
801953fc:	39 40 00 00 	li      r10,0
80195400:	91 49 7a d0 	stw     r10,31440(r9)
80195404:	3d 20 80 19 	lis     r9,-32743
80195408:	c0 09 71 6c 	lfs     f0,29036(r9)
8019540c:	d0 1f 00 08 	stfs    f0,8(r31)
80195410:	39 20 00 00 	li      r9,0
80195414:	91 3f 00 0c 	stw     r9,12(r31)
80195418:	48 00 00 88 	b       801954a0 <_main+0x10f0>
8019541c:	3d 20 80 19 	lis     r9,-32743
80195420:	83 c9 7a c8 	lwz     r30,31432(r9)
80195424:	3d 20 80 19 	lis     r9,-32743
80195428:	39 49 75 8c 	addi    r10,r9,30092
8019542c:	81 3f 00 0c 	lwz     r9,12(r31)
80195430:	55 29 10 3a 	rlwinm  r9,r9,2,0,29
80195434:	7d 2a 4a 14 	add     r9,r10,r9
80195438:	c0 09 00 00 	lfs     f0,0(r9)
8019543c:	fc 20 00 90 	fmr     f1,f0
80195440:	48 00 23 c9 	bl      80197808 <sin>
80195444:	fd a0 08 90 	fmr     f13,f1
80195448:	3d 20 80 19 	lis     r9,-32743
8019544c:	39 49 71 74 	addi    r10,r9,29044
80195450:	81 3f 00 0c 	lwz     r9,12(r31)
80195454:	55 29 18 38 	rlwinm  r9,r9,3,0,28
80195458:	7d 2a 4a 14 	add     r9,r10,r9
8019545c:	39 29 00 04 	addi    r9,r9,4
80195460:	c1 89 00 00 	lfs     f12,0(r9)
80195464:	3d 20 80 19 	lis     r9,-32743
80195468:	c0 09 70 c4 	lfs     f0,28868(r9)
8019546c:	ec 0c 00 24 	fdivs   f0,f12,f0
80195470:	ec 0d 00 28 	fsubs   f0,f13,f0
80195474:	fc 20 00 90 	fmr     f1,f0
80195478:	7f c9 03 a6 	mtctr   r30
8019547c:	4e 80 04 21 	bctrl
80195480:	fc 00 08 90 	fmr     f0,f1
80195484:	c0 3f 00 08 	lfs     f1,8(r31)
80195488:	fc 40 00 90 	fmr     f2,f0
8019548c:	48 00 25 ad 	bl      80197a38 <fmax>
80195490:	d0 3f 00 08 	stfs    f1,8(r31)
80195494:	81 3f 00 0c 	lwz     r9,12(r31)
80195498:	39 29 00 01 	addi    r9,r9,1
8019549c:	91 3f 00 0c 	stw     r9,12(r31)
801954a0:	81 3f 00 0c 	lwz     r9,12(r31)
801954a4:	2b 89 00 0f 	cmplwi  cr7,r9,15
801954a8:	40 9d ff 74 	ble     cr7,8019541c <_main+0x106c>
801954ac:	c1 bf 00 08 	lfs     f13,8(r31)
801954b0:	3d 20 80 19 	lis     r9,-32743
801954b4:	c0 09 71 58 	lfs     f0,29016(r9)
801954b8:	ff 8d 00 00 	fcmpu   cr7,f13,f0
801954bc:	7d 20 00 26 	mfcr    r9
801954c0:	55 29 ef fe 	rlwinm  r9,r9,29,31,31
801954c4:	55 29 06 3e 	clrlwi  r9,r9,24
801954c8:	69 29 00 01 	xori    r9,r9,1
801954cc:	55 29 06 3e 	clrlwi  r9,r9,24
801954d0:	2f 89 00 00 	cmpwi   cr7,r9,0
801954d4:	41 9e 00 1c 	beq     cr7,801954f0 <_main+0x1140>
801954d8:	3d 20 80 19 	lis     r9,-32743
801954dc:	38 69 67 04 	addi    r3,r9,26372
801954e0:	48 00 14 11 	bl      801968f0 <print>
801954e4:	3d 20 80 19 	lis     r9,-32743
801954e8:	39 40 00 00 	li      r10,0
801954ec:	91 49 7a d0 	stw     r10,31440(r9)
801954f0:	3d 20 80 19 	lis     r9,-32743
801954f4:	c0 09 71 6c 	lfs     f0,29036(r9)
801954f8:	d0 1f 00 10 	stfs    f0,16(r31)
801954fc:	39 20 00 00 	li      r9,0
80195500:	91 3f 00 14 	stw     r9,20(r31)
80195504:	48 00 00 84 	b       80195588 <_main+0x11d8>
80195508:	3d 20 80 19 	lis     r9,-32743
8019550c:	83 c9 7a c8 	lwz     r30,31432(r9)
80195510:	3d 20 80 19 	lis     r9,-32743
80195514:	39 49 75 8c 	addi    r10,r9,30092
80195518:	81 3f 00 14 	lwz     r9,20(r31)
8019551c:	55 29 10 3a 	rlwinm  r9,r9,2,0,29
80195520:	7d 2a 4a 14 	add     r9,r10,r9
80195524:	c0 09 00 00 	lfs     f0,0(r9)
80195528:	fc 20 00 90 	fmr     f1,f0
8019552c:	48 00 22 a1 	bl      801977cc <cos>
80195530:	fd a0 08 90 	fmr     f13,f1
80195534:	3d 20 80 19 	lis     r9,-32743
80195538:	39 49 71 74 	addi    r10,r9,29044
8019553c:	81 3f 00 14 	lwz     r9,20(r31)
80195540:	55 29 18 38 	rlwinm  r9,r9,3,0,28
80195544:	7d 2a 4a 14 	add     r9,r10,r9
80195548:	c1 89 00 00 	lfs     f12,0(r9)
8019554c:	3d 20 80 19 	lis     r9,-32743
80195550:	c0 09 70 c4 	lfs     f0,28868(r9)
80195554:	ec 0c 00 24 	fdivs   f0,f12,f0
80195558:	ec 0d 00 28 	fsubs   f0,f13,f0
8019555c:	fc 20 00 90 	fmr     f1,f0
80195560:	7f c9 03 a6 	mtctr   r30
80195564:	4e 80 04 21 	bctrl
80195568:	fc 00 08 90 	fmr     f0,f1
8019556c:	c0 3f 00 10 	lfs     f1,16(r31)
80195570:	fc 40 00 90 	fmr     f2,f0
80195574:	48 00 24 c5 	bl      80197a38 <fmax>
80195578:	d0 3f 00 10 	stfs    f1,16(r31)
8019557c:	81 3f 00 14 	lwz     r9,20(r31)
80195580:	39 29 00 01 	addi    r9,r9,1
80195584:	91 3f 00 14 	stw     r9,20(r31)
80195588:	81 3f 00 14 	lwz     r9,20(r31)
8019558c:	2b 89 00 0f 	cmplwi  cr7,r9,15
80195590:	40 9d ff 78 	ble     cr7,80195508 <_main+0x1158>
80195594:	c1 bf 00 10 	lfs     f13,16(r31)
80195598:	3d 20 80 19 	lis     r9,-32743
8019559c:	c0 09 71 58 	lfs     f0,29016(r9)
801955a0:	ff 8d 00 00 	fcmpu   cr7,f13,f0
801955a4:	7d 20 00 26 	mfcr    r9
801955a8:	55 29 ef fe 	rlwinm  r9,r9,29,31,31
801955ac:	55 29 06 3e 	clrlwi  r9,r9,24
801955b0:	69 29 00 01 	xori    r9,r9,1
801955b4:	55 29 06 3e 	clrlwi  r9,r9,24
801955b8:	2f 89 00 00 	cmpwi   cr7,r9,0
801955bc:	41 9e 00 1c 	beq     cr7,801955d8 <_main+0x1228>
801955c0:	3d 20 80 19 	lis     r9,-32743
801955c4:	38 69 67 28 	addi    r3,r9,26408
801955c8:	48 00 13 29 	bl      801968f0 <print>
801955cc:	3d 20 80 19 	lis     r9,-32743
801955d0:	39 40 00 00 	li      r10,0
801955d4:	91 49 7a d0 	stw     r10,31440(r9)
801955d8:	3d 20 80 19 	lis     r9,-32743
801955dc:	c0 09 71 6c 	lfs     f0,29036(r9)
801955e0:	d0 1f 00 18 	stfs    f0,24(r31)
801955e4:	39 20 00 00 	li      r9,0
801955e8:	91 3f 00 1c 	stw     r9,28(r31)
801955ec:	48 00 00 bc 	b       801956a8 <_main+0x12f8>
801955f0:	3d 20 80 19 	lis     r9,-32743
801955f4:	39 49 77 18 	addi    r10,r9,30488
801955f8:	81 3f 00 1c 	lwz     r9,28(r31)
801955fc:	55 29 10 3a 	rlwinm  r9,r9,2,0,29
80195600:	7d 2a 4a 14 	add     r9,r10,r9
80195604:	81 29 00 00 	lwz     r9,0(r9)
80195608:	91 3f 00 40 	stw     r9,64(r31)
8019560c:	3d 20 80 19 	lis     r9,-32743
80195610:	39 49 71 74 	addi    r10,r9,29044
80195614:	81 3f 00 40 	lwz     r9,64(r31)
80195618:	55 29 18 38 	rlwinm  r9,r9,3,0,28
8019561c:	7d 2a 4a 14 	add     r9,r10,r9
80195620:	39 29 00 04 	addi    r9,r9,4
80195624:	c1 a9 00 00 	lfs     f13,0(r9)
80195628:	3d 20 80 19 	lis     r9,-32743
8019562c:	39 49 71 74 	addi    r10,r9,29044
80195630:	81 3f 00 40 	lwz     r9,64(r31)
80195634:	55 29 18 38 	rlwinm  r9,r9,3,0,28
80195638:	7d 2a 4a 14 	add     r9,r10,r9
8019563c:	c0 09 00 00 	lfs     f0,0(r9)
80195640:	ec 0d 00 24 	fdivs   f0,f13,f0
80195644:	d0 1f 00 44 	stfs    f0,68(r31)
80195648:	3d 20 80 19 	lis     r9,-32743
8019564c:	83 c9 7a c8 	lwz     r30,31432(r9)
80195650:	3d 20 80 19 	lis     r9,-32743
80195654:	39 49 75 8c 	addi    r10,r9,30092
80195658:	81 3f 00 40 	lwz     r9,64(r31)
8019565c:	55 29 10 3a 	rlwinm  r9,r9,2,0,29
80195660:	7d 2a 4a 14 	add     r9,r10,r9
80195664:	c0 09 00 00 	lfs     f0,0(r9)
80195668:	fc 20 00 90 	fmr     f1,f0
8019566c:	48 00 21 25 	bl      80197790 <tan>
80195670:	fd a0 08 90 	fmr     f13,f1
80195674:	c0 1f 00 44 	lfs     f0,68(r31)
80195678:	ec 0d 00 28 	fsubs   f0,f13,f0
8019567c:	fc 20 00 90 	fmr     f1,f0
80195680:	7f c9 03 a6 	mtctr   r30
80195684:	4e 80 04 21 	bctrl
80195688:	fc 00 08 90 	fmr     f0,f1
8019568c:	c0 3f 00 18 	lfs     f1,24(r31)
80195690:	fc 40 00 90 	fmr     f2,f0
80195694:	48 00 23 a5 	bl      80197a38 <fmax>
80195698:	d0 3f 00 18 	stfs    f1,24(r31)
8019569c:	81 3f 00 1c 	lwz     r9,28(r31)
801956a0:	39 29 00 01 	addi    r9,r9,1
801956a4:	91 3f 00 1c 	stw     r9,28(r31)
801956a8:	81 3f 00 1c 	lwz     r9,28(r31)
801956ac:	2b 89 00 0d 	cmplwi  cr7,r9,13
801956b0:	40 9d ff 40 	ble     cr7,801955f0 <_main+0x1240>
801956b4:	c1 bf 00 18 	lfs     f13,24(r31)
801956b8:	3d 20 80 19 	lis     r9,-32743
801956bc:	c0 09 71 58 	lfs     f0,29016(r9)
801956c0:	ff 8d 00 00 	fcmpu   cr7,f13,f0
801956c4:	7d 20 00 26 	mfcr    r9
801956c8:	55 29 ef fe 	rlwinm  r9,r9,29,31,31
801956cc:	55 29 06 3e 	clrlwi  r9,r9,24
801956d0:	69 29 00 01 	xori    r9,r9,1
801956d4:	55 29 06 3e 	clrlwi  r9,r9,24
801956d8:	2f 89 00 00 	cmpwi   cr7,r9,0
801956dc:	41 9e 00 1c 	beq     cr7,801956f8 <_main+0x1348>
801956e0:	3d 20 80 19 	lis     r9,-32743
801956e4:	38 69 67 4c 	addi    r3,r9,26444
801956e8:	48 00 12 09 	bl      801968f0 <print>
801956ec:	3d 20 80 19 	lis     r9,-32743
801956f0:	39 40 00 00 	li      r10,0
801956f4:	91 49 7a d0 	stw     r10,31440(r9)
801956f8:	3d 20 80 19 	lis     r9,-32743
801956fc:	c0 09 71 6c 	lfs     f0,29036(r9)
80195700:	d0 1f 00 20 	stfs    f0,32(r31)
80195704:	39 20 00 00 	li      r9,0
80195708:	91 3f 00 24 	stw     r9,36(r31)
8019570c:	48 00 00 a4 	b       801957b0 <_main+0x1400>
80195710:	3d 20 80 19 	lis     r9,-32743
80195714:	39 49 79 e4 	addi    r10,r9,31204
80195718:	81 3f 00 24 	lwz     r9,36(r31)
8019571c:	55 29 10 3a 	rlwinm  r9,r9,2,0,29
80195720:	7d 2a 4a 14 	add     r9,r10,r9
80195724:	81 29 00 00 	lwz     r9,0(r9)
80195728:	91 3f 00 48 	stw     r9,72(r31)
8019572c:	3d 20 80 19 	lis     r9,-32743
80195730:	83 c9 7a c8 	lwz     r30,31432(r9)
80195734:	3d 20 80 19 	lis     r9,-32743
80195738:	39 49 71 74 	addi    r10,r9,29044
8019573c:	81 3f 00 48 	lwz     r9,72(r31)
80195740:	55 29 18 38 	rlwinm  r9,r9,3,0,28
80195744:	7d 2a 4a 14 	add     r9,r10,r9
80195748:	39 29 00 04 	addi    r9,r9,4
8019574c:	c1 a9 00 00 	lfs     f13,0(r9)
80195750:	3d 20 80 19 	lis     r9,-32743
80195754:	c0 09 70 c4 	lfs     f0,28868(r9)
80195758:	ec 0d 00 24 	fdivs   f0,f13,f0
8019575c:	fc 20 00 90 	fmr     f1,f0
80195760:	48 00 14 79 	bl      80196bd8 <asin>
80195764:	fd a0 08 90 	fmr     f13,f1
80195768:	3d 20 80 19 	lis     r9,-32743
8019576c:	39 49 75 8c 	addi    r10,r9,30092
80195770:	81 3f 00 48 	lwz     r9,72(r31)
80195774:	55 29 10 3a 	rlwinm  r9,r9,2,0,29
80195778:	7d 2a 4a 14 	add     r9,r10,r9
8019577c:	c0 09 00 00 	lfs     f0,0(r9)
80195780:	ec 0d 00 28 	fsubs   f0,f13,f0
80195784:	fc 20 00 90 	fmr     f1,f0
80195788:	7f c9 03 a6 	mtctr   r30
8019578c:	4e 80 04 21 	bctrl
80195790:	fc 00 08 90 	fmr     f0,f1
80195794:	c0 3f 00 20 	lfs     f1,32(r31)
80195798:	fc 40 00 90 	fmr     f2,f0
8019579c:	48 00 22 9d 	bl      80197a38 <fmax>
801957a0:	d0 3f 00 20 	stfs    f1,32(r31)
801957a4:	81 3f 00 24 	lwz     r9,36(r31)
801957a8:	39 29 00 01 	addi    r9,r9,1
801957ac:	91 3f 00 24 	stw     r9,36(r31)
801957b0:	81 3f 00 24 	lwz     r9,36(r31)
801957b4:	2b 89 00 07 	cmplwi  cr7,r9,7
801957b8:	40 9d ff 58 	ble     cr7,80195710 <_main+0x1360>
801957bc:	c1 bf 00 20 	lfs     f13,32(r31)
801957c0:	3d 20 80 19 	lis     r9,-32743
801957c4:	c0 09 71 5c 	lfs     f0,29020(r9)
801957c8:	ff 8d 00 00 	fcmpu   cr7,f13,f0
801957cc:	7d 20 00 26 	mfcr    r9
801957d0:	55 29 ef fe 	rlwinm  r9,r9,29,31,31
801957d4:	55 29 06 3e 	clrlwi  r9,r9,24
801957d8:	69 29 00 01 	xori    r9,r9,1
801957dc:	55 29 06 3e 	clrlwi  r9,r9,24
801957e0:	2f 89 00 00 	cmpwi   cr7,r9,0
801957e4:	41 9e 00 1c 	beq     cr7,80195800 <_main+0x1450>
801957e8:	3d 20 80 19 	lis     r9,-32743
801957ec:	38 69 67 70 	addi    r3,r9,26480
801957f0:	48 00 11 01 	bl      801968f0 <print>
801957f4:	3d 20 80 19 	lis     r9,-32743
801957f8:	39 40 00 00 	li      r10,0
801957fc:	91 49 7a d0 	stw     r10,31440(r9)
80195800:	3d 20 80 19 	lis     r9,-32743
80195804:	c0 09 71 6c 	lfs     f0,29036(r9)
80195808:	d0 1f 00 28 	stfs    f0,40(r31)
8019580c:	39 20 00 00 	li      r9,0
80195810:	91 3f 00 2c 	stw     r9,44(r31)
80195814:	48 00 00 a0 	b       801958b4 <_main+0x1504>
80195818:	3d 20 80 19 	lis     r9,-32743
8019581c:	39 49 79 98 	addi    r10,r9,31128
80195820:	81 3f 00 2c 	lwz     r9,44(r31)
80195824:	55 29 10 3a 	rlwinm  r9,r9,2,0,29
80195828:	7d 2a 4a 14 	add     r9,r10,r9
8019582c:	81 29 00 00 	lwz     r9,0(r9)
80195830:	91 3f 00 4c 	stw     r9,76(r31)
80195834:	3d 20 80 19 	lis     r9,-32743
80195838:	83 c9 7a c8 	lwz     r30,31432(r9)
8019583c:	3d 20 80 19 	lis     r9,-32743
80195840:	39 49 71 74 	addi    r10,r9,29044
80195844:	81 3f 00 4c 	lwz     r9,76(r31)
80195848:	55 29 18 38 	rlwinm  r9,r9,3,0,28
8019584c:	7d 2a 4a 14 	add     r9,r10,r9
80195850:	c1 a9 00 00 	lfs     f13,0(r9)
80195854:	3d 20 80 19 	lis     r9,-32743
80195858:	c0 09 70 c4 	lfs     f0,28868(r9)
8019585c:	ec 0d 00 24 	fdivs   f0,f13,f0
80195860:	fc 20 00 90 	fmr     f1,f0
80195864:	48 00 15 99 	bl      80196dfc <acos>
80195868:	fd a0 08 90 	fmr     f13,f1
8019586c:	3d 20 80 19 	lis     r9,-32743
80195870:	39 49 75 8c 	addi    r10,r9,30092
80195874:	81 3f 00 4c 	lwz     r9,76(r31)
80195878:	55 29 10 3a 	rlwinm  r9,r9,2,0,29
8019587c:	7d 2a 4a 14 	add     r9,r10,r9
80195880:	c0 09 00 00 	lfs     f0,0(r9)
80195884:	ec 0d 00 28 	fsubs   f0,f13,f0
80195888:	fc 20 00 90 	fmr     f1,f0
8019588c:	7f c9 03 a6 	mtctr   r30
80195890:	4e 80 04 21 	bctrl
80195894:	fc 00 08 90 	fmr     f0,f1
80195898:	c0 3f 00 28 	lfs     f1,40(r31)
8019589c:	fc 40 00 90 	fmr     f2,f0
801958a0:	48 00 21 99 	bl      80197a38 <fmax>
801958a4:	d0 3f 00 28 	stfs    f1,40(r31)
801958a8:	81 3f 00 2c 	lwz     r9,44(r31)
801958ac:	39 29 00 01 	addi    r9,r9,1
801958b0:	91 3f 00 2c 	stw     r9,44(r31)
801958b4:	81 3f 00 2c 	lwz     r9,44(r31)
801958b8:	2b 89 00 08 	cmplwi  cr7,r9,8
801958bc:	40 9d ff 5c 	ble     cr7,80195818 <_main+0x1468>
801958c0:	c1 bf 00 28 	lfs     f13,40(r31)
801958c4:	3d 20 80 19 	lis     r9,-32743
801958c8:	c0 09 71 5c 	lfs     f0,29020(r9)
801958cc:	ff 8d 00 00 	fcmpu   cr7,f13,f0
801958d0:	7d 20 00 26 	mfcr    r9
801958d4:	55 29 ef fe 	rlwinm  r9,r9,29,31,31
801958d8:	55 29 06 3e 	clrlwi  r9,r9,24
801958dc:	69 29 00 01 	xori    r9,r9,1
801958e0:	55 29 06 3e 	clrlwi  r9,r9,24
801958e4:	2f 89 00 00 	cmpwi   cr7,r9,0
801958e8:	41 9e 00 1c 	beq     cr7,80195904 <_main+0x1554>
801958ec:	3d 20 80 19 	lis     r9,-32743
801958f0:	38 69 67 94 	addi    r3,r9,26516
801958f4:	48 00 0f fd 	bl      801968f0 <print>
801958f8:	3d 20 80 19 	lis     r9,-32743
801958fc:	39 40 00 00 	li      r10,0
80195900:	91 49 7a d0 	stw     r10,31440(r9)
80195904:	3d 20 80 19 	lis     r9,-32743
80195908:	c0 09 71 6c 	lfs     f0,29036(r9)
8019590c:	d0 1f 00 30 	stfs    f0,48(r31)
80195910:	39 20 00 00 	li      r9,0
80195914:	91 3f 00 34 	stw     r9,52(r31)
80195918:	48 00 00 b8 	b       801959d0 <_main+0x1620>
8019591c:	3d 20 80 19 	lis     r9,-32743
80195920:	39 49 7a 88 	addi    r10,r9,31368
80195924:	81 3f 00 34 	lwz     r9,52(r31)
80195928:	55 29 10 3a 	rlwinm  r9,r9,2,0,29
8019592c:	7d 2a 4a 14 	add     r9,r10,r9
80195930:	81 29 00 00 	lwz     r9,0(r9)
80195934:	91 3f 00 50 	stw     r9,80(r31)
80195938:	3d 20 80 19 	lis     r9,-32743
8019593c:	39 49 71 74 	addi    r10,r9,29044
80195940:	81 3f 00 50 	lwz     r9,80(r31)
80195944:	55 29 18 38 	rlwinm  r9,r9,3,0,28
80195948:	7d 2a 4a 14 	add     r9,r10,r9
8019594c:	39 29 00 04 	addi    r9,r9,4
80195950:	c1 a9 00 00 	lfs     f13,0(r9)
80195954:	3d 20 80 19 	lis     r9,-32743
80195958:	39 49 71 74 	addi    r10,r9,29044
8019595c:	81 3f 00 50 	lwz     r9,80(r31)
80195960:	55 29 18 38 	rlwinm  r9,r9,3,0,28
80195964:	7d 2a 4a 14 	add     r9,r10,r9
80195968:	c0 09 00 00 	lfs     f0,0(r9)
8019596c:	ec 0d 00 24 	fdivs   f0,f13,f0
80195970:	d0 1f 00 54 	stfs    f0,84(r31)
80195974:	3d 20 80 19 	lis     r9,-32743
80195978:	83 c9 7a c8 	lwz     r30,31432(r9)
8019597c:	c0 3f 00 54 	lfs     f1,84(r31)
80195980:	48 00 1f ed 	bl      8019796c <atan>
80195984:	fd a0 08 90 	fmr     f13,f1
80195988:	3d 20 80 19 	lis     r9,-32743
8019598c:	39 49 75 8c 	addi    r10,r9,30092
80195990:	81 3f 00 50 	lwz     r9,80(r31)
80195994:	55 29 10 3a 	rlwinm  r9,r9,2,0,29
80195998:	7d 2a 4a 14 	add     r9,r10,r9
8019599c:	c0 09 00 00 	lfs     f0,0(r9)
801959a0:	ec 0d 00 28 	fsubs   f0,f13,f0
801959a4:	fc 20 00 90 	fmr     f1,f0
801959a8:	7f c9 03 a6 	mtctr   r30
801959ac:	4e 80 04 21 	bctrl
801959b0:	fc 00 08 90 	fmr     f0,f1
801959b4:	c0 3f 00 30 	lfs     f1,48(r31)
801959b8:	fc 40 00 90 	fmr     f2,f0
801959bc:	48 00 20 7d 	bl      80197a38 <fmax>
801959c0:	d0 3f 00 30 	stfs    f1,48(r31)
801959c4:	81 3f 00 34 	lwz     r9,52(r31)
801959c8:	39 29 00 01 	addi    r9,r9,1
801959cc:	91 3f 00 34 	stw     r9,52(r31)
801959d0:	81 3f 00 34 	lwz     r9,52(r31)
801959d4:	2b 89 00 03 	cmplwi  cr7,r9,3
801959d8:	40 9d ff 44 	ble     cr7,8019591c <_main+0x156c>
801959dc:	c1 bf 00 30 	lfs     f13,48(r31)
801959e0:	3d 20 80 19 	lis     r9,-32743
801959e4:	c0 09 71 60 	lfs     f0,29024(r9)
801959e8:	ff 8d 00 00 	fcmpu   cr7,f13,f0
801959ec:	7d 20 00 26 	mfcr    r9
801959f0:	55 29 ef fe 	rlwinm  r9,r9,29,31,31
801959f4:	55 29 06 3e 	clrlwi  r9,r9,24
801959f8:	69 29 00 01 	xori    r9,r9,1
801959fc:	55 29 06 3e 	clrlwi  r9,r9,24
80195a00:	2f 89 00 00 	cmpwi   cr7,r9,0
80195a04:	41 9e 00 1c 	beq     cr7,80195a20 <_main+0x1670>
80195a08:	3d 20 80 19 	lis     r9,-32743
80195a0c:	38 69 67 b8 	addi    r3,r9,26552
80195a10:	48 00 0e e1 	bl      801968f0 <print>
80195a14:	3d 20 80 19 	lis     r9,-32743
80195a18:	39 40 00 00 	li      r10,0
80195a1c:	91 49 7a d0 	stw     r10,31440(r9)
80195a20:	3d 20 80 19 	lis     r9,-32743
80195a24:	c0 09 71 6c 	lfs     f0,29036(r9)
80195a28:	d0 1f 00 38 	stfs    f0,56(r31)
80195a2c:	39 20 00 00 	li      r9,0
80195a30:	91 3f 00 3c 	stw     r9,60(r31)
80195a34:	48 00 00 98 	b       80195acc <_main+0x171c>
80195a38:	3d 20 80 19 	lis     r9,-32743
80195a3c:	83 c9 7a c8 	lwz     r30,31432(r9)
80195a40:	3d 20 80 19 	lis     r9,-32743
80195a44:	39 49 71 74 	addi    r10,r9,29044
80195a48:	81 3f 00 3c 	lwz     r9,60(r31)
80195a4c:	55 29 18 38 	rlwinm  r9,r9,3,0,28
80195a50:	7d 2a 4a 14 	add     r9,r10,r9
80195a54:	39 29 00 04 	addi    r9,r9,4
80195a58:	c1 a9 00 00 	lfs     f13,0(r9)
80195a5c:	3d 20 80 19 	lis     r9,-32743
80195a60:	39 49 71 74 	addi    r10,r9,29044
80195a64:	81 3f 00 3c 	lwz     r9,60(r31)
80195a68:	55 29 18 38 	rlwinm  r9,r9,3,0,28
80195a6c:	7d 2a 4a 14 	add     r9,r10,r9
80195a70:	c0 09 00 00 	lfs     f0,0(r9)
80195a74:	fc 20 68 90 	fmr     f1,f13
80195a78:	fc 40 00 90 	fmr     f2,f0
80195a7c:	48 00 12 75 	bl      80196cf0 <atan2>
80195a80:	fd a0 08 90 	fmr     f13,f1
80195a84:	3d 20 80 19 	lis     r9,-32743
80195a88:	39 49 75 8c 	addi    r10,r9,30092
80195a8c:	81 3f 00 3c 	lwz     r9,60(r31)
80195a90:	55 29 10 3a 	rlwinm  r9,r9,2,0,29
80195a94:	7d 2a 4a 14 	add     r9,r10,r9
80195a98:	c0 09 00 00 	lfs     f0,0(r9)
80195a9c:	ec 0d 00 28 	fsubs   f0,f13,f0
80195aa0:	fc 20 00 90 	fmr     f1,f0
80195aa4:	7f c9 03 a6 	mtctr   r30
80195aa8:	4e 80 04 21 	bctrl
80195aac:	fc 00 08 90 	fmr     f0,f1
80195ab0:	c0 3f 00 38 	lfs     f1,56(r31)
80195ab4:	fc 40 00 90 	fmr     f2,f0
80195ab8:	48 00 1f 81 	bl      80197a38 <fmax>
80195abc:	d0 3f 00 38 	stfs    f1,56(r31)
80195ac0:	81 3f 00 3c 	lwz     r9,60(r31)
80195ac4:	39 29 00 01 	addi    r9,r9,1
80195ac8:	91 3f 00 3c 	stw     r9,60(r31)
80195acc:	81 3f 00 3c 	lwz     r9,60(r31)
80195ad0:	2b 89 00 0f 	cmplwi  cr7,r9,15
80195ad4:	40 9d ff 64 	ble     cr7,80195a38 <_main+0x1688>
80195ad8:	c1 bf 00 38 	lfs     f13,56(r31)
80195adc:	3d 20 80 19 	lis     r9,-32743
80195ae0:	c0 09 71 60 	lfs     f0,29024(r9)
80195ae4:	ff 8d 00 00 	fcmpu   cr7,f13,f0
80195ae8:	7d 20 00 26 	mfcr    r9
80195aec:	55 29 ef fe 	rlwinm  r9,r9,29,31,31
80195af0:	55 29 06 3e 	clrlwi  r9,r9,24
80195af4:	69 29 00 01 	xori    r9,r9,1
80195af8:	55 29 06 3e 	clrlwi  r9,r9,24
80195afc:	2f 89 00 00 	cmpwi   cr7,r9,0
80195b00:	41 9e 00 1c 	beq     cr7,80195b1c <_main+0x176c>
80195b04:	3d 20 80 19 	lis     r9,-32743
80195b08:	38 69 67 dc 	addi    r3,r9,26588
80195b0c:	48 00 0d e5 	bl      801968f0 <print>
80195b10:	3d 20 80 19 	lis     r9,-32743
80195b14:	39 40 00 00 	li      r10,0
80195b18:	91 49 7a d0 	stw     r10,31440(r9)
80195b1c:	3d 20 80 19 	lis     r9,-32743
80195b20:	c0 09 71 6c 	lfs     f0,29036(r9)
80195b24:	d0 1f 00 74 	stfs    f0,116(r31)
80195b28:	3d 40 80 19 	lis     r10,-32743
80195b2c:	c0 0a 71 6c 	lfs     f0,29036(r10)
80195b30:	d0 1f 00 78 	stfs    f0,120(r31)
80195b34:	3d 20 80 19 	lis     r9,-32743
80195b38:	39 29 7a 74 	addi    r9,r9,31348
80195b3c:	c8 09 00 00 	lfd     f0,0(r9)
80195b40:	d8 1f 00 7c 	stfd    f0,124(r31)
80195b44:	3d 20 80 19 	lis     r9,-32743
80195b48:	39 29 7a 7c 	addi    r9,r9,31356
80195b4c:	c8 09 00 00 	lfd     f0,0(r9)
80195b50:	d8 1f 00 84 	stfd    f0,132(r31)
80195b54:	3d 20 80 19 	lis     r9,-32743
80195b58:	83 c9 7a c8 	lwz     r30,31432(r9)
80195b5c:	c8 1f 00 7c 	lfd     f0,124(r31)
80195b60:	d8 1f 00 98 	stfd    f0,152(r31)
80195b64:	39 3f 00 98 	addi    r9,r31,152
80195b68:	7d 23 4b 78 	mr      r3,r9
80195b6c:	48 00 17 81 	bl      801972ec <magnitude>
80195b70:	fd a0 08 90 	fmr     f13,f1
80195b74:	3d 20 80 19 	lis     r9,-32743
80195b78:	c0 09 71 64 	lfs     f0,29028(r9)
80195b7c:	ec 0d 00 28 	fsubs   f0,f13,f0
80195b80:	fc 20 00 90 	fmr     f1,f0
80195b84:	7f c9 03 a6 	mtctr   r30
80195b88:	4e 80 04 21 	bctrl
80195b8c:	fc 00 08 90 	fmr     f0,f1
80195b90:	fd a0 00 90 	fmr     f13,f0
80195b94:	3d 20 80 19 	lis     r9,-32743
80195b98:	c8 09 79 c0 	lfd     f0,31168(r9)
80195b9c:	ff 8d 00 00 	fcmpu   cr7,f13,f0
80195ba0:	7d 20 00 26 	mfcr    r9
80195ba4:	55 29 ef fe 	rlwinm  r9,r9,29,31,31
80195ba8:	55 29 06 3e 	clrlwi  r9,r9,24
80195bac:	69 29 00 01 	xori    r9,r9,1
80195bb0:	55 29 06 3e 	clrlwi  r9,r9,24
80195bb4:	2f 89 00 00 	cmpwi   cr7,r9,0
80195bb8:	41 9e 00 1c 	beq     cr7,80195bd4 <_main+0x1824>
80195bbc:	3d 20 80 19 	lis     r9,-32743
80195bc0:	38 69 68 00 	addi    r3,r9,26624
80195bc4:	48 00 0d 2d 	bl      801968f0 <print>
80195bc8:	3d 20 80 19 	lis     r9,-32743
80195bcc:	39 40 00 00 	li      r10,0
80195bd0:	91 49 7a d0 	stw     r10,31440(r9)
80195bd4:	3d 20 80 19 	lis     r9,-32743
80195bd8:	83 c9 7a c8 	lwz     r30,31432(r9)
80195bdc:	c8 1f 00 84 	lfd     f0,132(r31)
80195be0:	d8 1f 00 98 	stfd    f0,152(r31)
80195be4:	39 3f 00 98 	addi    r9,r31,152
80195be8:	7d 23 4b 78 	mr      r3,r9
80195bec:	48 00 17 01 	bl      801972ec <magnitude>
80195bf0:	ff e0 08 90 	fmr     f31,f1
80195bf4:	3d 20 80 19 	lis     r9,-32743
80195bf8:	c0 09 70 f4 	lfs     f0,28916(r9)
80195bfc:	d0 1f 00 6c 	stfs    f0,108(r31)
80195c00:	c0 1f 00 6c 	lfs     f0,108(r31)
80195c04:	3d 20 80 19 	lis     r9,-32743
80195c08:	c1 a9 71 6c 	lfs     f13,29036(r9)
80195c0c:	ff 80 68 00 	fcmpu   cr7,f0,f13
80195c10:	41 9e 00 2c 	beq     cr7,80195c3c <_main+0x188c>
80195c14:	3d 20 80 19 	lis     r9,-32743
80195c18:	81 29 7a c0 	lwz     r9,31424(r9)
80195c1c:	c0 3f 00 6c 	lfs     f1,108(r31)
80195c20:	7d 29 03 a6 	mtctr   r9
80195c24:	4e 80 04 21 	bctrl
80195c28:	fc 00 08 90 	fmr     f0,f1
80195c2c:	3d 20 80 19 	lis     r9,-32743
80195c30:	c1 a9 70 c8 	lfs     f13,28872(r9)
80195c34:	ec 0d 00 24 	fdivs   f0,f13,f0
80195c38:	48 00 00 0c 	b       80195c44 <_main+0x1894>
80195c3c:	3d 20 80 19 	lis     r9,-32743
80195c40:	c0 09 71 6c 	lfs     f0,29036(r9)
80195c44:	ec 1f 00 28 	fsubs   f0,f31,f0
80195c48:	fc 20 00 90 	fmr     f1,f0
80195c4c:	7f c9 03 a6 	mtctr   r30
80195c50:	4e 80 04 21 	bctrl
80195c54:	fc 00 08 90 	fmr     f0,f1
80195c58:	fd a0 00 90 	fmr     f13,f0
80195c5c:	3d 20 80 19 	lis     r9,-32743
80195c60:	c8 09 79 c0 	lfd     f0,31168(r9)
80195c64:	ff 8d 00 00 	fcmpu   cr7,f13,f0
80195c68:	7d 20 00 26 	mfcr    r9
80195c6c:	55 29 ef fe 	rlwinm  r9,r9,29,31,31
80195c70:	55 29 06 3e 	clrlwi  r9,r9,24
80195c74:	69 29 00 01 	xori    r9,r9,1
80195c78:	55 29 06 3e 	clrlwi  r9,r9,24
80195c7c:	2f 89 00 00 	cmpwi   cr7,r9,0
80195c80:	41 9e 00 1c 	beq     cr7,80195c9c <_main+0x18ec>
80195c84:	3d 20 80 19 	lis     r9,-32743
80195c88:	38 69 68 24 	addi    r3,r9,26660
80195c8c:	48 00 0c 65 	bl      801968f0 <print>
80195c90:	3d 20 80 19 	lis     r9,-32743
80195c94:	39 40 00 00 	li      r10,0
80195c98:	91 49 7a d0 	stw     r10,31440(r9)
80195c9c:	3d 20 80 19 	lis     r9,-32743
80195ca0:	83 c9 7a c8 	lwz     r30,31432(r9)
80195ca4:	c8 1f 00 7c 	lfd     f0,124(r31)
80195ca8:	d8 1f 00 98 	stfd    f0,152(r31)
80195cac:	c8 1f 00 84 	lfd     f0,132(r31)
80195cb0:	d8 1f 00 a0 	stfd    f0,160(r31)
80195cb4:	39 5f 00 98 	addi    r10,r31,152
80195cb8:	39 3f 00 a0 	addi    r9,r31,160
80195cbc:	7d 43 53 78 	mr      r3,r10
80195cc0:	7d 24 4b 78 	mr      r4,r9
80195cc4:	48 00 15 b1 	bl      80197274 <distance>
80195cc8:	ff e0 08 90 	fmr     f31,f1
80195ccc:	3d 20 80 19 	lis     r9,-32743
80195cd0:	c0 09 71 68 	lfs     f0,29032(r9)
80195cd4:	d0 1f 00 70 	stfs    f0,112(r31)
80195cd8:	c0 1f 00 70 	lfs     f0,112(r31)
80195cdc:	3d 20 80 19 	lis     r9,-32743
80195ce0:	c1 a9 71 6c 	lfs     f13,29036(r9)
80195ce4:	ff 80 68 00 	fcmpu   cr7,f0,f13
80195ce8:	41 9e 00 2c 	beq     cr7,80195d14 <_main+0x1964>
80195cec:	3d 20 80 19 	lis     r9,-32743
80195cf0:	81 29 7a c0 	lwz     r9,31424(r9)
80195cf4:	c0 3f 00 70 	lfs     f1,112(r31)
80195cf8:	7d 29 03 a6 	mtctr   r9
80195cfc:	4e 80 04 21 	bctrl
80195d00:	fc 00 08 90 	fmr     f0,f1
80195d04:	3d 20 80 19 	lis     r9,-32743
80195d08:	c1 a9 70 c8 	lfs     f13,28872(r9)
80195d0c:	ec 0d 00 24 	fdivs   f0,f13,f0
80195d10:	48 00 00 0c 	b       80195d1c <_main+0x196c>
80195d14:	3d 20 80 19 	lis     r9,-32743
80195d18:	c0 09 71 6c 	lfs     f0,29036(r9)
80195d1c:	ec 1f 00 28 	fsubs   f0,f31,f0
80195d20:	fc 20 00 90 	fmr     f1,f0
80195d24:	7f c9 03 a6 	mtctr   r30
80195d28:	4e 80 04 21 	bctrl
80195d2c:	fc 00 08 90 	fmr     f0,f1
80195d30:	fd a0 00 90 	fmr     f13,f0
80195d34:	3d 20 80 19 	lis     r9,-32743
80195d38:	c8 09 79 c0 	lfd     f0,31168(r9)
80195d3c:	ff 8d 00 00 	fcmpu   cr7,f13,f0
80195d40:	7d 20 00 26 	mfcr    r9
80195d44:	55 29 ef fe 	rlwinm  r9,r9,29,31,31
80195d48:	55 29 06 3e 	clrlwi  r9,r9,24
80195d4c:	69 29 00 01 	xori    r9,r9,1
80195d50:	55 29 06 3e 	clrlwi  r9,r9,24
80195d54:	2f 89 00 00 	cmpwi   cr7,r9,0
80195d58:	41 9e 00 1c 	beq     cr7,80195d74 <_main+0x19c4>
80195d5c:	3d 20 80 19 	lis     r9,-32743
80195d60:	38 69 68 48 	addi    r3,r9,26696
80195d64:	48 00 0b 8d 	bl      801968f0 <print>
80195d68:	3d 20 80 19 	lis     r9,-32743
80195d6c:	39 40 00 00 	li      r10,0
80195d70:	91 49 7a d0 	stw     r10,31440(r9)
80195d74:	3d 20 80 19 	lis     r9,-32743
80195d78:	83 c9 7a c8 	lwz     r30,31432(r9)
80195d7c:	c8 1f 00 74 	lfd     f0,116(r31)
80195d80:	d8 1f 00 98 	stfd    f0,152(r31)
80195d84:	c8 1f 00 84 	lfd     f0,132(r31)
80195d88:	d8 1f 00 a0 	stfd    f0,160(r31)
80195d8c:	39 5f 00 98 	addi    r10,r31,152
80195d90:	39 3f 00 a0 	addi    r9,r31,160
80195d94:	7d 43 53 78 	mr      r3,r10
80195d98:	7d 24 4b 78 	mr      r4,r9
80195d9c:	48 00 14 d9 	bl      80197274 <distance>
80195da0:	ff e0 08 90 	fmr     f31,f1
80195da4:	c8 1f 00 84 	lfd     f0,132(r31)
80195da8:	d8 1f 00 98 	stfd    f0,152(r31)
80195dac:	39 3f 00 98 	addi    r9,r31,152
80195db0:	7d 23 4b 78 	mr      r3,r9
80195db4:	48 00 15 39 	bl      801972ec <magnitude>
80195db8:	fc 00 08 90 	fmr     f0,f1
80195dbc:	ec 1f 00 28 	fsubs   f0,f31,f0
80195dc0:	fc 20 00 90 	fmr     f1,f0
80195dc4:	7f c9 03 a6 	mtctr   r30
80195dc8:	4e 80 04 21 	bctrl
80195dcc:	fc 00 08 90 	fmr     f0,f1
80195dd0:	fd a0 00 90 	fmr     f13,f0
80195dd4:	3d 20 80 19 	lis     r9,-32743
80195dd8:	c8 09 79 c0 	lfd     f0,31168(r9)
80195ddc:	ff 8d 00 00 	fcmpu   cr7,f13,f0
80195de0:	7d 20 00 26 	mfcr    r9
80195de4:	55 29 ef fe 	rlwinm  r9,r9,29,31,31
80195de8:	55 29 06 3e 	clrlwi  r9,r9,24
80195dec:	69 29 00 01 	xori    r9,r9,1
80195df0:	55 29 06 3e 	clrlwi  r9,r9,24
80195df4:	2f 89 00 00 	cmpwi   cr7,r9,0
80195df8:	41 9e 00 1c 	beq     cr7,80195e14 <_main+0x1a64>
80195dfc:	3d 20 80 19 	lis     r9,-32743
80195e00:	38 69 68 6c 	addi    r3,r9,26732
80195e04:	48 00 0a ed 	bl      801968f0 <print>
80195e08:	3d 20 80 19 	lis     r9,-32743
80195e0c:	39 40 00 00 	li      r10,0
80195e10:	91 49 7a d0 	stw     r10,31440(r9)
80195e14:	3d 20 80 19 	lis     r9,-32743
80195e18:	83 c9 7a c8 	lwz     r30,31432(r9)
80195e1c:	c8 1f 00 7c 	lfd     f0,124(r31)
80195e20:	d8 1f 00 98 	stfd    f0,152(r31)
80195e24:	c8 1f 00 84 	lfd     f0,132(r31)
80195e28:	d8 1f 00 a0 	stfd    f0,160(r31)
80195e2c:	39 5f 00 98 	addi    r10,r31,152
80195e30:	39 3f 00 a0 	addi    r9,r31,160
80195e34:	7d 43 53 78 	mr      r3,r10
80195e38:	7d 24 4b 78 	mr      r4,r9
80195e3c:	48 00 15 79 	bl      801973b4 <angle>
80195e40:	fc 00 08 90 	fmr     f0,f1
80195e44:	fd a0 00 90 	fmr     f13,f0
80195e48:	3d 20 80 19 	lis     r9,-32743
80195e4c:	c8 09 79 c8 	lfd     f0,31176(r9)
80195e50:	fc 0d 00 28 	fsub    f0,f13,f0
80195e54:	fc 00 00 18 	frsp    f0,f0
80195e58:	fc 20 00 90 	fmr     f1,f0
80195e5c:	7f c9 03 a6 	mtctr   r30
80195e60:	4e 80 04 21 	bctrl
80195e64:	fc 00 08 90 	fmr     f0,f1
80195e68:	fd a0 00 90 	fmr     f13,f0
80195e6c:	3d 20 80 19 	lis     r9,-32743
80195e70:	c8 09 79 d0 	lfd     f0,31184(r9)
80195e74:	ff 8d 00 00 	fcmpu   cr7,f13,f0
80195e78:	7d 20 00 26 	mfcr    r9
80195e7c:	55 29 ef fe 	rlwinm  r9,r9,29,31,31
80195e80:	55 29 06 3e 	clrlwi  r9,r9,24
80195e84:	69 29 00 01 	xori    r9,r9,1
80195e88:	55 29 06 3e 	clrlwi  r9,r9,24
80195e8c:	2f 89 00 00 	cmpwi   cr7,r9,0
80195e90:	41 9e 00 1c 	beq     cr7,80195eac <_main+0x1afc>
80195e94:	3d 20 80 19 	lis     r9,-32743
80195e98:	38 69 68 90 	addi    r3,r9,26768
80195e9c:	48 00 0a 55 	bl      801968f0 <print>
80195ea0:	3d 20 80 19 	lis     r9,-32743
80195ea4:	39 40 00 00 	li      r10,0
80195ea8:	91 49 7a d0 	stw     r10,31440(r9)
80195eac:	3d 20 80 19 	lis     r9,-32743
80195eb0:	83 c9 7a c8 	lwz     r30,31432(r9)
80195eb4:	c8 1f 00 84 	lfd     f0,132(r31)
80195eb8:	d8 1f 00 98 	stfd    f0,152(r31)
80195ebc:	c8 1f 00 7c 	lfd     f0,124(r31)
80195ec0:	d8 1f 00 a0 	stfd    f0,160(r31)
80195ec4:	39 5f 00 98 	addi    r10,r31,152
80195ec8:	39 3f 00 a0 	addi    r9,r31,160
80195ecc:	7d 43 53 78 	mr      r3,r10
80195ed0:	7d 24 4b 78 	mr      r4,r9
80195ed4:	48 00 14 e1 	bl      801973b4 <angle>
80195ed8:	fc 00 08 90 	fmr     f0,f1
80195edc:	fd a0 00 90 	fmr     f13,f0
80195ee0:	3d 20 80 19 	lis     r9,-32743
80195ee4:	c8 09 79 d8 	lfd     f0,31192(r9)
80195ee8:	fc 0d 00 28 	fsub    f0,f13,f0
80195eec:	fc 00 00 18 	frsp    f0,f0
80195ef0:	fc 20 00 90 	fmr     f1,f0
80195ef4:	7f c9 03 a6 	mtctr   r30
80195ef8:	4e 80 04 21 	bctrl
80195efc:	fc 00 08 90 	fmr     f0,f1
80195f00:	fd a0 00 90 	fmr     f13,f0
80195f04:	3d 20 80 19 	lis     r9,-32743
80195f08:	c8 09 79 d0 	lfd     f0,31184(r9)
80195f0c:	ff 8d 00 00 	fcmpu   cr7,f13,f0
80195f10:	7d 20 00 26 	mfcr    r9
80195f14:	55 29 ef fe 	rlwinm  r9,r9,29,31,31
80195f18:	55 29 06 3e 	clrlwi  r9,r9,24
80195f1c:	69 29 00 01 	xori    r9,r9,1
80195f20:	55 29 06 3e 	clrlwi  r9,r9,24
80195f24:	2f 89 00 00 	cmpwi   cr7,r9,0
80195f28:	41 9e 00 1c 	beq     cr7,80195f44 <_main+0x1b94>
80195f2c:	3d 20 80 19 	lis     r9,-32743
80195f30:	38 69 68 b4 	addi    r3,r9,26804
80195f34:	48 00 09 bd 	bl      801968f0 <print>
80195f38:	3d 20 80 19 	lis     r9,-32743
80195f3c:	39 40 00 00 	li      r10,0
80195f40:	91 49 7a d0 	stw     r10,31440(r9)
80195f44:	3d 20 80 19 	lis     r9,-32743
80195f48:	81 29 7a d0 	lwz     r9,31440(r9)
80195f4c:	2f 89 00 00 	cmpwi   cr7,r9,0
80195f50:	41 9e 00 10 	beq     cr7,80195f60 <_main+0x1bb0>
80195f54:	3d 20 80 19 	lis     r9,-32743
80195f58:	38 69 68 d8 	addi    r3,r9,26840
80195f5c:	48 00 09 95 	bl      801968f0 <print>
80195f60:	3d 20 80 19 	lis     r9,-32743
80195f64:	39 40 00 01 	li      r10,1
80195f68:	91 49 7a e0 	stw     r10,31456(r9)
80195f6c:	39 7f 00 b8 	addi    r11,r31,184
80195f70:	80 0b 00 04 	lwz     r0,4(r11)
80195f74:	7c 08 03 a6 	mtlr    r0
80195f78:	83 cb ff f0 	lwz     r30,-16(r11)
80195f7c:	83 eb ff f4 	lwz     r31,-12(r11)
80195f80:	cb eb ff f8 	lfd     f31,-8(r11)
80195f84:	7d 61 5b 78 	mr      r1,r11
80195f88:	4e 80 00 20 	blr


801970b8 <wiimake_section_20>:

801970b8:	c0 b0 00 00 	lfs     f5,0(r16)
801970bc:	40 b0 00 00 	bge     cr4,801970bc <error+0xcc>
801970c0:	41 89 99 9a 	bgta    cr2,ffff9998 <inject_point_0+0x7fc82000>
801970c4:	40 00 00 00 	bdnzf   lt,801970c4 <error+0xd4>
801970c8:	3f 80 00 00 	lis     r28,0
801970cc:	3f b4 fd f4 	addis   r29,r20,-524
801970d0:	3a 83 12 6f 	addi    r20,r3,4719
801970d4:	3b a3 d7 0a 	addi    r29,r3,-10486
801970d8:	3d 90 cb 29 	addis   r12,r16,-13527
801970dc:	42 b0 00 00 	.long 0x42b00000
801970e0:	41 16 17 c2 	bdnzta  4*cr5+eq,17c0 <strcpy-0x1e840>
801970e4:	47 55 52 00 	.long 0x47555200
801970e8:	43 69 b0 14 	bc+     26,4*cr2+gt,801920fc <heap+0x1018>
801970ec:	c0 c0 00 00 	lfs     f6,0(0)
801970f0:	41 0f 33 33 	bdnztla 4*cr3+so,3330 <strcpy-0x1ccd0>
801970f4:	41 00 00 00 	bdnzt   lt,801970f4 <error+0x104>
801970f8:	bf 33 33 33 	stmw    r25,13107(r19)
801970fc:	bf 80 00 00 	stmw    r28,0(0)
80197100:	3c a3 d7 0a 	addis   r5,r3,-10486
80197104:	c0 a0 00 00 	lfs     f5,0(0)
80197108:	41 10 00 00 	bdnzt   4*cr4+lt,80197108 <error+0x118>
8019710c:	40 13 33 33 	bdnzfla 4*cr4+so,3330 <strcpy-0x1ccd0>
80197110:	40 83 33 33 	bnsla   3330 <strcpy-0x1ccd0>
80197114:	40 ec cc cd 	bgel+   cr3,80193de0 <heap+0x2cfc>
80197118:	41 bb 33 33 	bsola   cr6,3330 <strcpy-0x1ccd0>
8019711c:	c0 66 66 66 	lfs     f3,26214(r6)
80197120:	bf b3 33 33 	stmw    r29,13107(r19)
80197124:	3f b3 33 33 	addis   r29,r19,13107
80197128:	c0 93 33 33 	lfs     f4,13107(r19)
8019712c:	bf d9 99 9a 	stmw    r30,-26214(r25)
80197130:	3f 00 00 00 	lis     r24,0
80197134:	3e 80 00 00 	lis     r20,0
80197138:	bf a6 66 66 	stmw    r29,26214(r6)
8019713c:	3f d8 51 ec 	addis   r30,r24,20972
80197140:	c0 59 99 9a 	lfs     f2,-26214(r25)
80197144:	42 1d 37 4c 	bc      16,4*cr7+gt,8019a890 <capacity+0x2d40>
80197148:	40 e6 66 66 	bnea+   cr1,6664 <strcpy-0x1999c>
8019714c:	45 27 f6 2b 	.long 0x4527f62b
80197150:	3f 99 99 9a 	addis   r28,r25,-26214
80197154:	3f b8 51 ec 	addis   r29,r24,20972
80197158:	3c 23 d7 0a 	addis   r1,r3,-10486
8019715c:	3d cc cc cd 	addis   r14,r12,-13107
80197160:	3e 99 99 9a 	addis   r20,r25,-26214
80197164:	40 a0 00 00 	bge     80197164 <error+0x174>
80197168:	41 e8 00 00 	blt+    cr2,80197168 <error+0x178>
8019716c:	00 00 00 00 	.long 0x0


801979c0 <wiimake_section_21>:

801979c0:	3f 50 62 4d 	addis   r26,r16,25165
801979c4:	d2 f1 a9 fc 	stfs    f23,-22020(r17)
801979c8:	40 69 3d c2 	bdzfa   4*cr2+gt,3dc0 <strcpy-0x1c240>
801979cc:	8f 5c 28 f6 	lbzu    r26,10486(r28)
801979d0:	3f 84 7a e1 	addis   r28,r4,31457
801979d4:	47 ae 14 7b 	.long 0x47ae147b
801979d8:	40 35 ee 14 	bdnzf   4*cr5+gt,801967ec <_main+0x243c>
801979dc:	7a e1 47 ae 	rldimi  r1,r23,40,62


80197a60 <wiimake_section_22>:

80197a60:	41 00 00 00 	bdnzt   lt,80197a60 <fmin+0x14>
80197a64:	0f 67 6e 75 	twi     27,r7,28277
80197a68:	00 01 00 00 	.long 0x10000
80197a6c:	00 07 04 01 	.long 0x70401


80197cf0 <wiimake_section_28>:

80197cf0:	4f 00 00 00 	mcrf    cr6,cr0
80197cf4:	59 80 00 00 	rlmi    r0,r12,r0,0,0
80197cf8:	59 80 00 04 	rlmi    r0,r12,r0,0,2
80197cfc:	00 00 00 00 	.long 0x0
80197d00:	3f 80 00 00 	lis     r28,0
80197d04:	3c 8e fa 35 	addis   r4,r14,-1483
80197d08:	bc 99 6e 30 	stmw    r4,28208(r25)
80197d0c:	3d 98 16 27 	addis   r12,r24,5671
80197d10:	3e 59 34 84 	addis   r18,r25,13444
80197d14:	3f c9 0f db 	addis   r30,r9,4059
80197d18:	42 65 2e e1 	bcl     19,4*cr1+gt,8019abf8 <capacity+0x30a8>
80197d1c:	43 b4 00 00 	.long 0x43b40000
80197d20:	40 49 0f db 	bdzfla  4*cr2+gt,fd8 <strcpy-0x1f028>
80197d24:	3e 90 00 00 	addis   r20,r16,0
80197d28:	43 34 00 00 	bc+     24,4*cr5+lt,80197d28 <capacity+0x1d8>


80197c64 <wiimake_section_29>:

80197c64:	73 72 63 2f 	andi.   r18,r27,25391
80197c68:	70 72 69 6e 	andi.   r18,r3,26990
80197c6c:	74 2e 63 3a 	andis.  r14,r1,25402
80197c70:	35 38 3a 20 	addic.  r9,r24,14880
80197c74:	73 74 72 69 	andi.   r20,r27,29289
80197c78:	6e 67 20 74 	xoris   r7,r19,8308
80197c7c:	6f 6f 20 6c 	xoris   r15,r27,8300
80197c80:	61 72 67 65 	ori     r18,r11,26469
80197c84:	00 00 00 00 	.long 0x0
80197c88:	73 72 63 2f 	andi.   r18,r27,25391
80197c8c:	70 72 69 6e 	andi.   r18,r3,26990
80197c90:	74 2e 63 3a 	andis.  r14,r1,25402
80197c94:	38 30 3a 20 	addi    r1,r16,14880
80197c98:	66 61 69 6c 	oris    r1,r19,26988
80197c9c:	65 64 20 61 	oris    r4,r11,8289
80197ca0:	6c 6c 6f 63 	xoris   r12,r3,28515
80197ca4:	61 74 69 6f 	ori     r20,r11,26991
80197ca8:	6e 00 00 00 	xoris   r0,r16,0


80196efc <floor>:

80196efc:	94 21 ff d0 	stwu    r1,-48(r1)
80196f00:	fc 00 08 90 	fmr     f0,f1
80196f04:	3d 20 80 19 	lis     r9,-32743
80196f08:	c1 a9 7c fc 	lfs     f13,31996(r9)
80196f0c:	ff 81 68 00 	fcmpu   cr7,f1,f13
80196f10:	4f dd f3 82 	cror    4*cr7+eq,4*cr7+gt,4*cr7+eq
80196f14:	40 9e 00 70 	bne     cr7,80196f84 <floor+0x88>
80196f18:	3d 20 80 19 	lis     r9,-32743
80196f1c:	c1 a9 7c f0 	lfs     f13,31984(r9)
80196f20:	ff 81 68 00 	fcmpu   cr7,f1,f13
80196f24:	4f dd f3 82 	cror    4*cr7+eq,4*cr7+gt,4*cr7+eq
80196f28:	41 9e 00 18 	beq     cr7,80196f40 <floor+0x44>
80196f2c:	fc 00 08 1e 	fctiwz  f0,f1
80196f30:	39 21 00 28 	addi    r9,r1,40
80196f34:	7c 00 4f ae 	stfiwx  f0,0,r9
80196f38:	81 21 00 28 	lwz     r9,40(r1)
80196f3c:	48 00 00 24 	b       80196f60 <floor+0x64>
80196f40:	3d 20 80 19 	lis     r9,-32743
80196f44:	c1 a9 7c f0 	lfs     f13,31984(r9)
80196f48:	ec 01 68 28 	fsubs   f0,f1,f13
80196f4c:	fc 00 00 1e 	fctiwz  f0,f0
80196f50:	39 21 00 24 	addi    r9,r1,36
80196f54:	7c 00 4f ae 	stfiwx  f0,0,r9
80196f58:	81 21 00 24 	lwz     r9,36(r1)
80196f5c:	3d 29 80 00 	addis   r9,r9,-32768
80196f60:	91 21 00 0c 	stw     r9,12(r1)
80196f64:	3d 20 43 30 	lis     r9,17200
80196f68:	91 21 00 08 	stw     r9,8(r1)
80196f6c:	3d 20 80 19 	lis     r9,-32743
80196f70:	c0 29 7c f4 	lfs     f1,31988(r9)
80196f74:	c8 01 00 08 	lfd     f0,8(r1)
80196f78:	fc 20 08 28 	fsub    f1,f0,f1
80196f7c:	fc 20 08 18 	frsp    f1,f1
80196f80:	48 00 00 64 	b       80196fe4 <floor+0xe8>
80196f84:	fd a0 08 1e 	fctiwz  f13,f1
80196f88:	39 21 00 20 	addi    r9,r1,32
80196f8c:	7d a0 4f ae 	stfiwx  f13,0,r9
80196f90:	81 21 00 20 	lwz     r9,32(r1)
80196f94:	6d 2a 80 00 	xoris   r10,r9,32768
80196f98:	91 41 00 14 	stw     r10,20(r1)
80196f9c:	3d 40 43 30 	lis     r10,17200
80196fa0:	91 41 00 10 	stw     r10,16(r1)
80196fa4:	3d 40 80 19 	lis     r10,-32743
80196fa8:	c0 2a 7c f8 	lfs     f1,31992(r10)
80196fac:	c9 a1 00 10 	lfd     f13,16(r1)
80196fb0:	fc 2d 08 28 	fsub    f1,f13,f1
80196fb4:	fc 20 08 18 	frsp    f1,f1
80196fb8:	ff 81 00 00 	fcmpu   cr7,f1,f0
80196fbc:	41 9e 00 28 	beq     cr7,80196fe4 <floor+0xe8>
80196fc0:	39 29 ff ff 	addi    r9,r9,-1
80196fc4:	6d 29 80 00 	xoris   r9,r9,32768
80196fc8:	91 21 00 1c 	stw     r9,28(r1)
80196fcc:	3d 20 43 30 	lis     r9,17200
80196fd0:	91 21 00 18 	stw     r9,24(r1)
80196fd4:	c0 2a 7c f8 	lfs     f1,31992(r10)
80196fd8:	c8 01 00 18 	lfd     f0,24(r1)
80196fdc:	fc 20 08 28 	fsub    f1,f0,f1
80196fe0:	fc 20 08 18 	frsp    f1,f1
80196fe4:	38 21 00 30 	addi    r1,r1,48
80196fe8:	4e 80 00 20 	blr


80197940 <ceil>:

80197940:	94 21 ff f8 	stwu    r1,-8(r1)
80197944:	7c 08 02 a6 	mflr    r0
80197948:	90 01 00 0c 	stw     r0,12(r1)
8019794c:	fc 20 08 50 	fneg    f1,f1
80197950:	4b ff f5 ad 	bl      80196efc <floor>
80197954:	fc 20 08 50 	fneg    f1,f1
80197958:	80 01 00 0c 	lwz     r0,12(r1)
8019795c:	7c 08 03 a6 	mtlr    r0
80197960:	38 21 00 08 	addi    r1,r1,8
80197964:	4e 80 00 20 	blr


80197a20 <imax>:

80197a20:	7f 84 18 00 	cmpw    cr7,r4,r3
80197a24:	40 9c 00 08 	bge     cr7,80197a2c <imax+0xc>
80197a28:	7c 64 1b 78 	mr      r4,r3
80197a2c:	7c 83 23 78 	mr      r3,r4
80197a30:	4e 80 00 20 	blr


80197a08 <imin>:

80197a08:	7f 84 18 00 	cmpw    cr7,r4,r3
80197a0c:	40 9d 00 08 	ble     cr7,80197a14 <imin+0xc>
80197a10:	7c 64 1b 78 	mr      r4,r3
80197a14:	7c 83 23 78 	mr      r3,r4
80197a18:	4e 80 00 20 	blr


80197a38 <fmax>:

80197a38:	ff 81 10 00 	fcmpu   cr7,f1,f2
80197a3c:	4d 9d 00 20 	bgtlr   cr7
80197a40:	fc 20 10 90 	fmr     f1,f2
80197a44:	4e 80 00 20 	blr


80197a4c <fmin>:

80197a4c:	ff 81 10 00 	fcmpu   cr7,f1,f2
80197a50:	4d 9c 00 20 	bltlr   cr7
80197a54:	fc 20 10 90 	fmr     f1,f2
80197a58:	4e 80 00 20 	blr


80197658 <ipow>:

80197658:	7c 6a 1b 78 	mr      r10,r3
8019765c:	2c 04 00 00 	cmpwi   r4,0
80197660:	41 82 00 2c 	beq     8019768c <ipow+0x34>
80197664:	38 60 00 01 	li      r3,1
80197668:	70 89 00 01 	andi.   r9,r4,1
8019766c:	41 82 00 08 	beq     80197674 <ipow+0x1c>
80197670:	7c 63 51 d6 	mullw   r3,r3,r10
80197674:	55 4a 04 3e 	clrlwi  r10,r10,16
80197678:	7d 4a 51 d6 	mullw   r10,r10,r10
8019767c:	7d 4a 07 34 	extsh   r10,r10
80197680:	54 84 f8 7f 	rlwinm. r4,r4,31,1,31
80197684:	40 82 ff e4 	bne     80197668 <ipow+0x10>
80197688:	4e 80 00 20 	blr
8019768c:	38 60 00 01 	li      r3,1
80197690:	4e 80 00 20 	blr


801976d8 <fpow>:

801976d8:	fc 00 08 90 	fmr     f0,f1
801976dc:	2c 03 00 00 	cmpwi   r3,0
801976e0:	41 82 00 28 	beq     80197708 <fpow+0x30>
801976e4:	3d 40 80 19 	lis     r10,-32743
801976e8:	c0 2a 7d 00 	lfs     f1,32000(r10)
801976ec:	70 69 00 01 	andi.   r9,r3,1
801976f0:	41 82 00 08 	beq     801976f8 <fpow+0x20>
801976f4:	ec 21 00 32 	fmuls   f1,f1,f0
801976f8:	ec 00 00 32 	fmuls   f0,f0,f0
801976fc:	54 63 f8 7f 	rlwinm. r3,r3,31,1,31
80197700:	40 82 ff ec 	bne     801976ec <fpow+0x14>
80197704:	4e 80 00 20 	blr
80197708:	3d 20 80 19 	lis     r9,-32743
8019770c:	c0 29 7d 00 	lfs     f1,32000(r9)
80197710:	4e 80 00 20 	blr


80197808 <sin>:

80197808:	94 21 ff f8 	stwu    r1,-8(r1)
8019780c:	7c 08 02 a6 	mflr    r0
80197810:	90 01 00 0c 	stw     r0,12(r1)
80197814:	3d 20 80 19 	lis     r9,-32743
80197818:	c0 09 7d 04 	lfs     f0,32004(r9)
8019781c:	ec 21 00 32 	fmuls   f1,f1,f0
80197820:	3d 20 80 32 	lis     r9,-32718
80197824:	61 29 62 20 	ori     r9,r9,25120
80197828:	7d 29 03 a6 	mtctr   r9
8019782c:	4e 80 04 21 	bctrl
80197830:	80 01 00 0c 	lwz     r0,12(r1)
80197834:	7c 08 03 a6 	mtlr    r0
80197838:	38 21 00 08 	addi    r1,r1,8
8019783c:	4e 80 00 20 	blr


801977cc <cos>:

801977cc:	94 21 ff f8 	stwu    r1,-8(r1)
801977d0:	7c 08 02 a6 	mflr    r0
801977d4:	90 01 00 0c 	stw     r0,12(r1)
801977d8:	3d 20 80 19 	lis     r9,-32743
801977dc:	c0 09 7d 04 	lfs     f0,32004(r9)
801977e0:	ec 21 00 32 	fmuls   f1,f1,f0
801977e4:	3d 20 80 32 	lis     r9,-32718
801977e8:	61 29 62 00 	ori     r9,r9,25088
801977ec:	7d 29 03 a6 	mtctr   r9
801977f0:	4e 80 04 21 	bctrl
801977f4:	80 01 00 0c 	lwz     r0,12(r1)
801977f8:	7c 08 03 a6 	mtlr    r0
801977fc:	38 21 00 08 	addi    r1,r1,8
80197800:	4e 80 00 20 	blr


80197790 <tan>:

80197790:	94 21 ff f8 	stwu    r1,-8(r1)
80197794:	7c 08 02 a6 	mflr    r0
80197798:	90 01 00 0c 	stw     r0,12(r1)
8019779c:	3d 20 80 19 	lis     r9,-32743
801977a0:	c0 09 7d 04 	lfs     f0,32004(r9)
801977a4:	ec 21 00 32 	fmuls   f1,f1,f0
801977a8:	3d 20 80 32 	lis     r9,-32718
801977ac:	61 29 61 bc 	ori     r9,r9,25020
801977b0:	7d 29 03 a6 	mtctr   r9
801977b4:	4e 80 04 21 	bctrl
801977b8:	80 01 00 0c 	lwz     r0,12(r1)
801977bc:	7c 08 03 a6 	mtlr    r0
801977c0:	38 21 00 08 	addi    r1,r1,8
801977c4:	4e 80 00 20 	blr


80196bd8 <asin>:

80196bd8:	94 21 ff e8 	stwu    r1,-24(r1)
80196bdc:	7c 08 02 a6 	mflr    r0
80196be0:	90 01 00 1c 	stw     r0,28(r1)
80196be4:	db c1 00 08 	stfd    f30,8(r1)
80196be8:	db e1 00 10 	stfd    f31,16(r1)
80196bec:	3d 20 80 19 	lis     r9,-32743
80196bf0:	c0 09 7c fc 	lfs     f0,31996(r9)
80196bf4:	ff 81 00 00 	fcmpu   cr7,f1,f0
80196bf8:	40 bc 00 10 	bge     cr7,80196c08 <asin+0x30>
80196bfc:	3d 20 80 19 	lis     r9,-32743
80196c00:	c3 e9 7d 00 	lfs     f31,32000(r9)
80196c04:	48 00 00 0c 	b       80196c10 <asin+0x38>
80196c08:	3d 20 80 19 	lis     r9,-32743
80196c0c:	c3 e9 7c fc 	lfs     f31,31996(r9)
80196c10:	3d 20 80 19 	lis     r9,-32743
80196c14:	81 29 7a c8 	lwz     r9,31432(r9)
80196c18:	7d 29 03 a6 	mtctr   r9
80196c1c:	4e 80 04 21 	bctrl
80196c20:	3d 20 80 19 	lis     r9,-32743
80196c24:	c0 09 7d 08 	lfs     f0,32008(r9)
80196c28:	ec 01 00 32 	fmuls   f0,f1,f0
80196c2c:	3d 20 80 19 	lis     r9,-32743
80196c30:	c1 69 7d 0c 	lfs     f11,32012(r9)
80196c34:	ed 60 58 2a 	fadds   f11,f0,f11
80196c38:	ed 6b 00 72 	fmuls   f11,f11,f1
80196c3c:	3d 20 80 19 	lis     r9,-32743
80196c40:	c1 89 7d 10 	lfs     f12,32016(r9)
80196c44:	ed 8b 60 28 	fsubs   f12,f11,f12
80196c48:	ed 8c 00 72 	fmuls   f12,f12,f1
80196c4c:	3d 20 80 19 	lis     r9,-32743
80196c50:	c3 c9 7d 14 	lfs     f30,32020(r9)
80196c54:	ef cc f0 2a 	fadds   f30,f12,f30
80196c58:	3d 20 80 19 	lis     r9,-32743
80196c5c:	c0 09 7d 00 	lfs     f0,32000(r9)
80196c60:	ec 20 08 28 	fsubs   f1,f0,f1
80196c64:	3d 20 80 19 	lis     r9,-32743
80196c68:	c1 a9 7c fc 	lfs     f13,31996(r9)
80196c6c:	ff 81 68 00 	fcmpu   cr7,f1,f13
80196c70:	41 be 00 20 	beq     cr7,80196c90 <asin+0xb8>
80196c74:	3d 20 80 19 	lis     r9,-32743
80196c78:	81 29 7a c0 	lwz     r9,31424(r9)
80196c7c:	7d 29 03 a6 	mtctr   r9
80196c80:	4e 80 04 21 	bctrl
80196c84:	3d 20 80 19 	lis     r9,-32743
80196c88:	c1 a9 7d 00 	lfs     f13,32000(r9)
80196c8c:	ed ad 08 24 	fdivs   f13,f13,f1
80196c90:	ed be 03 72 	fmuls   f13,f30,f13
80196c94:	3d 20 80 19 	lis     r9,-32743
80196c98:	c0 09 7d 14 	lfs     f0,32020(r9)
80196c9c:	ec 00 68 28 	fsubs   f0,f0,f13
80196ca0:	ef ff f8 2a 	fadds   f31,f31,f31
80196ca4:	ef ff 00 32 	fmuls   f31,f31,f0
80196ca8:	ec 00 f8 28 	fsubs   f0,f0,f31
80196cac:	3d 20 80 19 	lis     r9,-32743
80196cb0:	c0 29 7d 18 	lfs     f1,32024(r9)
80196cb4:	ec 20 00 72 	fmuls   f1,f0,f1
80196cb8:	3d 20 80 19 	lis     r9,-32743
80196cbc:	c0 09 7c fc 	lfs     f0,31996(r9)
80196cc0:	ff 81 00 00 	fcmpu   cr7,f1,f0
80196cc4:	40 bc 00 10 	bge     cr7,80196cd4 <asin+0xfc>
80196cc8:	3d 20 80 19 	lis     r9,-32743
80196ccc:	c0 09 7d 1c 	lfs     f0,32028(r9)
80196cd0:	ec 21 00 2a 	fadds   f1,f1,f0
80196cd4:	80 01 00 1c 	lwz     r0,28(r1)
80196cd8:	7c 08 03 a6 	mtlr    r0
80196cdc:	cb c1 00 08 	lfd     f30,8(r1)
80196ce0:	cb e1 00 10 	lfd     f31,16(r1)
80196ce4:	38 21 00 18 	addi    r1,r1,24
80196ce8:	4e 80 00 20 	blr


80196dfc <acos>:

80196dfc:	94 21 ff e8 	stwu    r1,-24(r1)
80196e00:	7c 08 02 a6 	mflr    r0
80196e04:	90 01 00 1c 	stw     r0,28(r1)
80196e08:	db c1 00 08 	stfd    f30,8(r1)
80196e0c:	db e1 00 10 	stfd    f31,16(r1)
80196e10:	3d 20 80 19 	lis     r9,-32743
80196e14:	c0 09 7c fc 	lfs     f0,31996(r9)
80196e18:	ff 81 00 00 	fcmpu   cr7,f1,f0
80196e1c:	40 bc 00 10 	bge     cr7,80196e2c <acos+0x30>
80196e20:	3d 20 80 19 	lis     r9,-32743
80196e24:	c3 e9 7d 00 	lfs     f31,32000(r9)
80196e28:	48 00 00 0c 	b       80196e34 <acos+0x38>
80196e2c:	3d 20 80 19 	lis     r9,-32743
80196e30:	c3 e9 7c fc 	lfs     f31,31996(r9)
80196e34:	3d 20 80 19 	lis     r9,-32743
80196e38:	81 29 7a c8 	lwz     r9,31432(r9)
80196e3c:	7d 29 03 a6 	mtctr   r9
80196e40:	4e 80 04 21 	bctrl
80196e44:	3d 20 80 19 	lis     r9,-32743
80196e48:	c0 09 7d 08 	lfs     f0,32008(r9)
80196e4c:	ec 01 00 32 	fmuls   f0,f1,f0
80196e50:	3d 20 80 19 	lis     r9,-32743
80196e54:	c1 89 7d 0c 	lfs     f12,32012(r9)
80196e58:	ed 80 60 2a 	fadds   f12,f0,f12
80196e5c:	ed 8c 00 72 	fmuls   f12,f12,f1
80196e60:	3d 20 80 19 	lis     r9,-32743
80196e64:	c1 a9 7d 10 	lfs     f13,32016(r9)
80196e68:	ed ac 68 28 	fsubs   f13,f12,f13
80196e6c:	ed ad 00 72 	fmuls   f13,f13,f1
80196e70:	3d 20 80 19 	lis     r9,-32743
80196e74:	c3 c9 7d 14 	lfs     f30,32020(r9)
80196e78:	ef cd f0 2a 	fadds   f30,f13,f30
80196e7c:	3d 20 80 19 	lis     r9,-32743
80196e80:	c0 09 7d 00 	lfs     f0,32000(r9)
80196e84:	ec 20 08 28 	fsubs   f1,f0,f1
80196e88:	3d 20 80 19 	lis     r9,-32743
80196e8c:	c1 a9 7c fc 	lfs     f13,31996(r9)
80196e90:	ff 81 68 00 	fcmpu   cr7,f1,f13
80196e94:	41 be 00 20 	beq     cr7,80196eb4 <acos+0xb8>
80196e98:	3d 20 80 19 	lis     r9,-32743
80196e9c:	81 29 7a c0 	lwz     r9,31424(r9)
80196ea0:	7d 29 03 a6 	mtctr   r9
80196ea4:	4e 80 04 21 	bctrl
80196ea8:	3d 20 80 19 	lis     r9,-32743
80196eac:	c1 a9 7d 00 	lfs     f13,32000(r9)
80196eb0:	ed ad 08 24 	fdivs   f13,f13,f1
80196eb4:	ec 1e 03 72 	fmuls   f0,f30,f13
80196eb8:	ed bf f8 2a 	fadds   f13,f31,f31
80196ebc:	ed ad 00 32 	fmuls   f13,f13,f0
80196ec0:	3d 20 80 19 	lis     r9,-32743
80196ec4:	c1 89 7d 20 	lfs     f12,32032(r9)
80196ec8:	ef ff 03 32 	fmuls   f31,f31,f12
80196ecc:	ec 00 68 28 	fsubs   f0,f0,f13
80196ed0:	ec 1f 00 2a 	fadds   f0,f31,f0
80196ed4:	3d 20 80 19 	lis     r9,-32743
80196ed8:	c0 29 7d 18 	lfs     f1,32024(r9)
80196edc:	ec 20 00 72 	fmuls   f1,f0,f1
80196ee0:	80 01 00 1c 	lwz     r0,28(r1)
80196ee4:	7c 08 03 a6 	mtlr    r0
80196ee8:	cb c1 00 08 	lfd     f30,8(r1)
80196eec:	cb e1 00 10 	lfd     f31,16(r1)
80196ef0:	38 21 00 18 	addi    r1,r1,24
80196ef4:	4e 80 00 20 	blr


80196cf0 <atan2>:

80196cf0:	94 21 ff d8 	stwu    r1,-40(r1)
80196cf4:	7c 08 02 a6 	mflr    r0
80196cf8:	90 01 00 2c 	stw     r0,44(r1)
80196cfc:	db a1 00 10 	stfd    f29,16(r1)
80196d00:	db c1 00 18 	stfd    f30,24(r1)
80196d04:	db e1 00 20 	stfd    f31,32(r1)
80196d08:	93 e1 00 0c 	stw     r31,12(r1)
80196d0c:	ff c0 08 90 	fmr     f30,f1
80196d10:	ff a0 10 90 	fmr     f29,f2
80196d14:	3f e0 80 19 	lis     r31,-32743
80196d18:	81 3f 7a c8 	lwz     r9,31432(r31)
80196d1c:	fc 20 10 90 	fmr     f1,f2
80196d20:	7d 29 03 a6 	mtctr   r9
80196d24:	4e 80 04 21 	bctrl
80196d28:	ff e0 08 90 	fmr     f31,f1
80196d2c:	81 3f 7a c8 	lwz     r9,31432(r31)
80196d30:	fc 20 f0 90 	fmr     f1,f30
80196d34:	7d 29 03 a6 	mtctr   r9
80196d38:	4e 80 04 21 	bctrl
80196d3c:	ff 9f 08 00 	fcmpu   cr7,f31,f1
80196d40:	40 9d 00 28 	ble     cr7,80196d68 <atan2+0x78>
80196d44:	ed bf 00 72 	fmuls   f13,f31,f1
80196d48:	ef ff 07 f2 	fmuls   f31,f31,f31
80196d4c:	3d 20 80 19 	lis     r9,-32743
80196d50:	c1 89 7d 24 	lfs     f12,32036(r9)
80196d54:	ed 81 03 32 	fmuls   f12,f1,f12
80196d58:	ec 0c 00 72 	fmuls   f0,f12,f1
80196d5c:	ef ff 00 2a 	fadds   f31,f31,f0
80196d60:	ef ed f8 24 	fdivs   f31,f13,f31
80196d64:	48 00 00 30 	b       80196d94 <atan2+0xa4>
80196d68:	ed bf 00 72 	fmuls   f13,f31,f1
80196d6c:	ec 01 00 72 	fmuls   f0,f1,f1
80196d70:	3d 20 80 19 	lis     r9,-32743
80196d74:	c1 89 7d 24 	lfs     f12,32036(r9)
80196d78:	ed 9f 03 32 	fmuls   f12,f31,f12
80196d7c:	ef ec 07 f2 	fmuls   f31,f12,f31
80196d80:	ef e0 f8 2a 	fadds   f31,f0,f31
80196d84:	ed ad f8 24 	fdivs   f13,f13,f31
80196d88:	3d 20 80 19 	lis     r9,-32743
80196d8c:	c3 e9 7d 14 	lfs     f31,32020(r9)
80196d90:	ef ff 68 28 	fsubs   f31,f31,f13
80196d94:	3d 20 80 19 	lis     r9,-32743
80196d98:	c0 09 7d 18 	lfs     f0,32024(r9)
80196d9c:	ec 3f 00 32 	fmuls   f1,f31,f0
80196da0:	3d 20 80 19 	lis     r9,-32743
80196da4:	c1 a9 7c fc 	lfs     f13,31996(r9)
80196da8:	ff 9d 68 00 	fcmpu   cr7,f29,f13
80196dac:	40 bc 00 10 	bge     cr7,80196dbc <atan2+0xcc>
80196db0:	3d 20 80 19 	lis     r9,-32743
80196db4:	c1 a9 7d 28 	lfs     f13,32040(r9)
80196db8:	ec 2d 08 28 	fsubs   f1,f13,f1
80196dbc:	3d 20 80 19 	lis     r9,-32743
80196dc0:	c1 a9 7c fc 	lfs     f13,31996(r9)
80196dc4:	ff 9e 68 00 	fcmpu   cr7,f30,f13
80196dc8:	40 bc 00 10 	bge     cr7,80196dd8 <atan2+0xe8>
80196dcc:	3d 20 80 19 	lis     r9,-32743
80196dd0:	c1 a9 7d 1c 	lfs     f13,32028(r9)
80196dd4:	ec 2d 08 28 	fsubs   f1,f13,f1
80196dd8:	80 01 00 2c 	lwz     r0,44(r1)
80196ddc:	7c 08 03 a6 	mtlr    r0
80196de0:	83 e1 00 0c 	lwz     r31,12(r1)
80196de4:	cb a1 00 10 	lfd     f29,16(r1)
80196de8:	cb c1 00 18 	lfd     f30,24(r1)
80196dec:	cb e1 00 20 	lfd     f31,32(r1)
80196df0:	38 21 00 28 	addi    r1,r1,40
80196df4:	4e 80 00 20 	blr


8019796c <atan>:

8019796c:	94 21 ff f8 	stwu    r1,-8(r1)
80197970:	7c 08 02 a6 	mflr    r0
80197974:	90 01 00 0c 	stw     r0,12(r1)
80197978:	3d 20 80 19 	lis     r9,-32743
8019797c:	c0 49 7d 00 	lfs     f2,32000(r9)
80197980:	4b ff f3 71 	bl      80196cf0 <atan2>
80197984:	80 01 00 0c 	lwz     r0,12(r1)
80197988:	7c 08 03 a6 	mtlr    r0
8019798c:	38 21 00 08 	addi    r1,r1,8
80197990:	4e 80 00 20 	blr


801973b4 <angle>:

801973b4:	94 21 ff f0 	stwu    r1,-16(r1)
801973b8:	7c 08 02 a6 	mflr    r0
801973bc:	90 01 00 14 	stw     r0,20(r1)
801973c0:	81 23 00 00 	lwz     r9,0(r3)
801973c4:	81 43 00 04 	lwz     r10,4(r3)
801973c8:	81 04 00 00 	lwz     r8,0(r4)
801973cc:	80 e4 00 04 	lwz     r7,4(r4)
801973d0:	90 e1 00 08 	stw     r7,8(r1)
801973d4:	c0 01 00 08 	lfs     f0,8(r1)
801973d8:	91 41 00 08 	stw     r10,8(r1)
801973dc:	c1 a1 00 08 	lfs     f13,8(r1)
801973e0:	ec 20 68 28 	fsubs   f1,f0,f13
801973e4:	91 01 00 08 	stw     r8,8(r1)
801973e8:	c0 01 00 08 	lfs     f0,8(r1)
801973ec:	91 21 00 08 	stw     r9,8(r1)
801973f0:	c1 a1 00 08 	lfs     f13,8(r1)
801973f4:	ec 40 68 28 	fsubs   f2,f0,f13
801973f8:	4b ff f8 f9 	bl      80196cf0 <atan2>
801973fc:	80 01 00 14 	lwz     r0,20(r1)
80197400:	7c 08 03 a6 	mtlr    r0
80197404:	38 21 00 10 	addi    r1,r1,16
80197408:	4e 80 00 20 	blr


801972ec <magnitude>:

801972ec:	c1 a3 00 00 	lfs     f13,0(r3)
801972f0:	c0 03 00 04 	lfs     f0,4(r3)
801972f4:	ed ad 03 72 	fmuls   f13,f13,f13
801972f8:	ec 00 00 32 	fmuls   f0,f0,f0
801972fc:	ec 0d 00 2a 	fadds   f0,f13,f0
80197300:	3d 20 80 19 	lis     r9,-32743
80197304:	c0 29 7c fc 	lfs     f1,31996(r9)
80197308:	ff 80 08 00 	fcmpu   cr7,f0,f1
8019730c:	4d be 00 20 	bclr+   12,4*cr7+eq
80197310:	94 21 ff f8 	stwu    r1,-8(r1)
80197314:	7c 08 02 a6 	mflr    r0
80197318:	90 01 00 0c 	stw     r0,12(r1)
8019731c:	3d 20 80 19 	lis     r9,-32743
80197320:	81 29 7a c0 	lwz     r9,31424(r9)
80197324:	fc 20 00 90 	fmr     f1,f0
80197328:	7d 29 03 a6 	mtctr   r9
8019732c:	4e 80 04 21 	bctrl
80197330:	3d 20 80 19 	lis     r9,-32743
80197334:	c0 09 7d 00 	lfs     f0,32000(r9)
80197338:	ec 20 08 24 	fdivs   f1,f0,f1
8019733c:	80 01 00 0c 	lwz     r0,12(r1)
80197340:	7c 08 03 a6 	mtlr    r0
80197344:	38 21 00 08 	addi    r1,r1,8
80197348:	4e 80 00 20 	blr


80197274 <distance>:

80197274:	94 21 ff e8 	stwu    r1,-24(r1)
80197278:	7c 08 02 a6 	mflr    r0
8019727c:	90 01 00 1c 	stw     r0,28(r1)
80197280:	80 e3 00 00 	lwz     r7,0(r3)
80197284:	81 03 00 04 	lwz     r8,4(r3)
80197288:	81 44 00 00 	lwz     r10,0(r4)
8019728c:	81 24 00 04 	lwz     r9,4(r4)
80197290:	91 41 00 10 	stw     r10,16(r1)
80197294:	c0 01 00 10 	lfs     f0,16(r1)
80197298:	90 e1 00 10 	stw     r7,16(r1)
8019729c:	c1 a1 00 10 	lfs     f13,16(r1)
801972a0:	ec 00 68 28 	fsubs   f0,f0,f13
801972a4:	d0 01 00 10 	stfs    f0,16(r1)
801972a8:	81 41 00 10 	lwz     r10,16(r1)
801972ac:	91 21 00 10 	stw     r9,16(r1)
801972b0:	c0 01 00 10 	lfs     f0,16(r1)
801972b4:	91 01 00 10 	stw     r8,16(r1)
801972b8:	c1 a1 00 10 	lfs     f13,16(r1)
801972bc:	ec 00 68 28 	fsubs   f0,f0,f13
801972c0:	d0 01 00 10 	stfs    f0,16(r1)
801972c4:	81 21 00 10 	lwz     r9,16(r1)
801972c8:	91 41 00 08 	stw     r10,8(r1)
801972cc:	91 21 00 0c 	stw     r9,12(r1)
801972d0:	38 61 00 08 	addi    r3,r1,8
801972d4:	48 00 00 19 	bl      801972ec <magnitude>
801972d8:	80 01 00 1c 	lwz     r0,28(r1)
801972dc:	7c 08 03 a6 	mtlr    r0
801972e0:	38 21 00 18 	addi    r1,r1,24
801972e4:	4e 80 00 20 	blr


80197ac8 <fabs>:

80197ac8:	80 32 61 b4 	lwz     r1,25012(r18)


80197ac0 <recipSqrt>:

80197ac0:	80 02 2d f8 	lwz     r0,11768(r2)


80197a9c <wiimake_section_92>:

80197a9c:	41 00 00 00 	bdnzt   lt,80197a9c <atan_indices+0x14>
80197aa0:	0f 67 6e 75 	twi     27,r7,28277
80197aa4:	00 01 00 00 	.long 0x10000
80197aa8:	00 07 04 01 	.long 0x70401


80196ff0 <error>:

80196ff0:	94 21 ff e8 	stwu    r1,-24(r1)
80196ff4:	7c 08 02 a6 	mflr    r0
80196ff8:	90 01 00 1c 	stw     r0,28(r1)
80196ffc:	93 e1 00 14 	stw     r31,20(r1)
80197000:	7c 3f 0b 78 	mr      r31,r1
80197004:	90 7f 00 08 	stw     r3,8(r31)
80197008:	3d 20 80 19 	lis     r9,-32743
8019700c:	81 29 7b 08 	lwz     r9,31496(r9)
80197010:	55 29 07 fe 	clrlwi  r9,r9,31
80197014:	2f 89 00 00 	cmpwi   cr7,r9,0
80197018:	41 9e 00 7c 	beq     cr7,80197094 <error+0xa4>
8019701c:	3d 20 80 19 	lis     r9,-32743
80197020:	81 29 7b 40 	lwz     r9,31552(r9)
80197024:	3d 40 80 19 	lis     r10,-32743
80197028:	38 6a 76 14 	addi    r3,r10,30228
8019702c:	80 9f 00 08 	lwz     r4,8(r31)
80197030:	38 a0 00 3c 	li      r5,60
80197034:	7d 29 03 a6 	mtctr   r9
80197038:	4e 80 04 21 	bctrl
8019703c:	3d 20 80 19 	lis     r9,-32743
80197040:	81 29 7b 48 	lwz     r9,31560(r9)
80197044:	80 7f 00 08 	lwz     r3,8(r31)
80197048:	7d 29 03 a6 	mtctr   r9
8019704c:	4e 80 04 21 	bctrl
80197050:	7c 69 1b 78 	mr      r9,r3
80197054:	2b 89 00 3c 	cmplwi  cr7,r9,60
80197058:	40 9d 00 2c 	ble     cr7,80197084 <error+0x94>
8019705c:	3d 20 80 19 	lis     r9,-32743
80197060:	81 29 7b 40 	lwz     r9,31552(r9)
80197064:	81 5f 00 08 	lwz     r10,8(r31)
80197068:	39 4a 00 3c 	addi    r10,r10,60
8019706c:	3d 00 80 19 	lis     r8,-32743
80197070:	38 68 75 d0 	addi    r3,r8,30160
80197074:	7d 44 53 78 	mr      r4,r10
80197078:	38 a0 00 3c 	li      r5,60
8019707c:	7d 29 03 a6 	mtctr   r9
80197080:	4e 80 04 21 	bctrl
80197084:	3d 20 80 19 	lis     r9,-32743
80197088:	39 40 00 00 	li      r10,0
8019708c:	91 49 7a e8 	stw     r10,31464(r9)
80197090:	48 00 00 0c 	b       8019709c <error+0xac>
80197094:	80 7f 00 08 	lwz     r3,8(r31)
80197098:	4b ff f8 59 	bl      801968f0 <print>
8019709c:	39 7f 00 18 	addi    r11,r31,24
801970a0:	80 0b 00 04 	lwz     r0,4(r11)
801970a4:	7c 08 03 a6 	mtlr    r0
801970a8:	83 eb ff fc 	lwz     r31,-4(r11)
801970ac:	7d 61 5b 78 	mr      r1,r11
801970b0:	4e 80 00 20 	blr


801968f0 <print>:

801968f0:	3d 20 80 19 	lis     r9,-32743
801968f4:	81 29 7b 08 	lwz     r9,31496(r9)
801968f8:	71 2a 00 01 	andi.   r10,r9,1
801968fc:	4c a2 00 20 	bclr+   4,eq
80196900:	94 21 ff a0 	stwu    r1,-96(r1)
80196904:	7c 08 02 a6 	mflr    r0
80196908:	90 01 00 64 	stw     r0,100(r1)
8019690c:	93 41 00 48 	stw     r26,72(r1)
80196910:	93 61 00 4c 	stw     r27,76(r1)
80196914:	93 81 00 50 	stw     r28,80(r1)
80196918:	93 a1 00 54 	stw     r29,84(r1)
8019691c:	93 c1 00 58 	stw     r30,88(r1)
80196920:	93 e1 00 5c 	stw     r31,92(r1)
80196924:	7c 7d 1b 78 	mr      r29,r3
80196928:	3d 20 80 19 	lis     r9,-32743
8019692c:	81 29 7b 48 	lwz     r9,31560(r9)
80196930:	7d 29 03 a6 	mtctr   r9
80196934:	4e 80 04 21 	bctrl
80196938:	3f e0 88 88 	lis     r31,-30584
8019693c:	63 ff 88 89 	ori     r31,r31,34953
80196940:	7f 63 f8 16 	mulhwu  r27,r3,r31
80196944:	57 7b d9 7e 	rlwinm  r27,r27,27,5,31
80196948:	3b 7b 00 01 	addi    r27,r27,1
8019694c:	48 00 11 65 	bl      80197ab0 <getHeapSize>
80196950:	7c 63 f8 16 	mulhwu  r3,r3,r31
80196954:	54 63 c2 3e 	rlwinm  r3,r3,24,8,31
80196958:	38 80 00 1b 	li      r4,27
8019695c:	48 00 10 ad 	bl      80197a08 <imin>
80196960:	3d 20 80 19 	lis     r9,-32743
80196964:	90 69 7a f0 	stw     r3,31472(r9)
80196968:	7f 9b 18 40 	cmplw   cr7,r27,r3
8019696c:	40 bd 00 14 	ble     cr7,80196980 <print+0x90>
80196970:	3c 60 80 19 	lis     r3,-32743
80196974:	38 63 7c 64 	addi    r3,r3,31844
80196978:	48 00 06 79 	bl      80196ff0 <error>
8019697c:	48 00 02 30 	b       80196bac <print+0x2bc>
80196980:	3d 20 80 19 	lis     r9,-32743
80196984:	81 29 7a e8 	lwz     r9,31464(r9)
80196988:	7d 5b 4a 14 	add     r10,r27,r9
8019698c:	7f 83 50 40 	cmplw   cr7,r3,r10
80196990:	40 bc 00 50 	bge     cr7,801969e0 <print+0xf0>
80196994:	7f e3 50 50 	subf    r31,r3,r10
80196998:	7c bf 48 50 	subf    r5,r31,r9
8019699c:	3f c0 80 19 	lis     r30,-32743
801969a0:	90 be 7a e8 	stw     r5,31464(r30)
801969a4:	3d 40 80 19 	lis     r10,-32743
801969a8:	81 4a 7b 00 	lwz     r10,31488(r10)
801969ac:	57 e4 28 34 	rlwinm  r4,r31,5,0,26
801969b0:	7d 43 53 78 	mr      r3,r10
801969b4:	7c 8a 22 14 	add     r4,r10,r4
801969b8:	54 a5 28 34 	rlwinm  r5,r5,5,0,26
801969bc:	48 00 0e f5 	bl      801978b0 <memcpy>
801969c0:	3d 20 80 19 	lis     r9,-32743
801969c4:	81 29 7a f8 	lwz     r9,31480(r9)
801969c8:	57 e4 30 32 	rlwinm  r4,r31,6,0,25
801969cc:	80 be 7a e8 	lwz     r5,31464(r30)
801969d0:	7d 23 4b 78 	mr      r3,r9
801969d4:	7c 89 22 14 	add     r4,r9,r4
801969d8:	54 a5 30 32 	rlwinm  r5,r5,6,0,25
801969dc:	48 00 0e d5 	bl      801978b0 <memcpy>
801969e0:	3d 20 80 19 	lis     r9,-32743
801969e4:	80 69 7a e8 	lwz     r3,31464(r9)
801969e8:	7c 7b 1a 14 	add     r3,r27,r3
801969ec:	3d 20 80 19 	lis     r9,-32743
801969f0:	81 29 7b 50 	lwz     r9,31568(r9)
801969f4:	7f 83 48 40 	cmplw   cr7,r3,r9
801969f8:	41 9d 00 14 	bgt     cr7,80196a0c <print+0x11c>
801969fc:	3b c0 00 00 	li      r30,0
80196a00:	2f 9b 00 00 	cmpwi   cr7,r27,0
80196a04:	40 be 00 80 	bne     cr7,80196a84 <print+0x194>
80196a08:	48 00 00 e4 	b       80196aec <print+0x1fc>
80196a0c:	38 63 00 05 	addi    r3,r3,5
80196a10:	38 80 00 1b 	li      r4,27
80196a14:	48 00 0f f5 	bl      80197a08 <imin>
80196a18:	3f 80 80 19 	lis     r28,-32743
80196a1c:	90 7c 7b 50 	stw     r3,31568(r28)
80196a20:	3f e0 80 19 	lis     r31,-32743
80196a24:	38 83 00 01 	addi    r4,r3,1
80196a28:	80 7f 7b 00 	lwz     r3,31488(r31)
80196a2c:	54 84 28 34 	rlwinm  r4,r4,5,0,26
80196a30:	48 00 07 c9 	bl      801971f8 <realloc>
80196a34:	90 7f 7b 00 	stw     r3,31488(r31)
80196a38:	3f c0 80 19 	lis     r30,-32743
80196a3c:	80 9c 7b 50 	lwz     r4,31568(r28)
80196a40:	80 7e 7a f8 	lwz     r3,31480(r30)
80196a44:	54 84 30 32 	rlwinm  r4,r4,6,0,25
80196a48:	48 00 07 b1 	bl      801971f8 <realloc>
80196a4c:	90 7e 7a f8 	stw     r3,31480(r30)
80196a50:	81 3f 7b 00 	lwz     r9,31488(r31)
80196a54:	2f 89 00 00 	cmpwi   cr7,r9,0
80196a58:	41 9e 00 0c 	beq     cr7,80196a64 <print+0x174>
80196a5c:	2f 83 00 00 	cmpwi   cr7,r3,0
80196a60:	40 9e ff 9c 	bne     cr7,801969fc <print+0x10c>
80196a64:	3d 20 80 19 	lis     r9,-32743
80196a68:	81 49 7b 08 	lwz     r10,31496(r9)
80196a6c:	61 4a 00 01 	ori     r10,r10,1
80196a70:	91 49 7b 08 	stw     r10,31496(r9)
80196a74:	3c 60 80 19 	lis     r3,-32743
80196a78:	38 63 7c 88 	addi    r3,r3,31880
80196a7c:	48 00 05 75 	bl      80196ff0 <error>
80196a80:	48 00 01 2c 	b       80196bac <print+0x2bc>
80196a84:	3f 80 80 19 	lis     r28,-32743
80196a88:	3f e0 80 19 	lis     r31,-32743
80196a8c:	3f 40 80 19 	lis     r26,-32743
80196a90:	80 7f 7a e8 	lwz     r3,31464(r31)
80196a94:	54 63 30 32 	rlwinm  r3,r3,6,0,25
80196a98:	81 3c 7a f8 	lwz     r9,31480(r28)
80196a9c:	7c 69 1a 14 	add     r3,r9,r3
80196aa0:	38 80 00 00 	li      r4,0
80196aa4:	38 a0 00 40 	li      r5,64
80196aa8:	48 00 0e 39 	bl      801978e0 <memset>
80196aac:	80 7f 7a e8 	lwz     r3,31464(r31)
80196ab0:	54 63 30 32 	rlwinm  r3,r3,6,0,25
80196ab4:	81 3c 7a f8 	lwz     r9,31480(r28)
80196ab8:	7c 69 1a 14 	add     r3,r9,r3
80196abc:	7f a4 eb 78 	mr      r4,r29
80196ac0:	38 a0 00 3c 	li      r5,60
80196ac4:	81 3a 7b 40 	lwz     r9,31552(r26)
80196ac8:	7d 29 03 a6 	mtctr   r9
80196acc:	4e 80 04 21 	bctrl
80196ad0:	81 3f 7a e8 	lwz     r9,31464(r31)
80196ad4:	39 29 00 01 	addi    r9,r9,1
80196ad8:	91 3f 7a e8 	stw     r9,31464(r31)
80196adc:	3b de 00 01 	addi    r30,r30,1
80196ae0:	3b bd 00 3c 	addi    r29,r29,60
80196ae4:	7f 9b f0 40 	cmplw   cr7,r27,r30
80196ae8:	40 9e ff a8 	bne     cr7,80196a90 <print+0x1a0>
80196aec:	3d 20 80 19 	lis     r9,-32743
80196af0:	81 29 7a e8 	lwz     r9,31464(r9)
80196af4:	2f 89 00 00 	cmpwi   cr7,r9,0
80196af8:	41 9e 00 70 	beq     cr7,80196b68 <print+0x278>
80196afc:	3b c0 00 00 	li      r30,0
80196b00:	3b e0 00 00 	li      r31,0
80196b04:	3b 40 00 01 	li      r26,1
80196b08:	3f 60 80 19 	lis     r27,-32743
80196b0c:	3f 80 80 19 	lis     r28,-32743
80196b10:	3f a0 80 19 	lis     r29,-32743
80196b14:	93 e1 00 2c 	stw     r31,44(r1)
80196b18:	93 e1 00 34 	stw     r31,52(r1)
80196b1c:	93 e1 00 38 	stw     r31,56(r1)
80196b20:	93 e1 00 3c 	stw     r31,60(r1)
80196b24:	93 e1 00 40 	stw     r31,64(r1)
80196b28:	93 e1 00 44 	stw     r31,68(r1)
80196b2c:	93 41 00 28 	stw     r26,40(r1)
80196b30:	57 ca 30 32 	rlwinm  r10,r30,6,0,25
80196b34:	81 3b 7a f8 	lwz     r9,31480(r27)
80196b38:	7d 29 52 14 	add     r9,r9,r10
80196b3c:	91 21 00 30 	stw     r9,48(r1)
80196b40:	57 c3 28 34 	rlwinm  r3,r30,5,0,26
80196b44:	81 3c 7b 00 	lwz     r9,31488(r28)
80196b48:	7c 69 1a 14 	add     r3,r9,r3
80196b4c:	38 81 00 28 	addi    r4,r1,40
80196b50:	38 a0 00 20 	li      r5,32
80196b54:	48 00 0d 5d 	bl      801978b0 <memcpy>
80196b58:	3b de 00 01 	addi    r30,r30,1
80196b5c:	81 3d 7a e8 	lwz     r9,31464(r29)
80196b60:	7f 89 f0 40 	cmplw   cr7,r9,r30
80196b64:	41 9d ff b0 	bgt     cr7,80196b14 <print+0x224>
80196b68:	39 40 00 00 	li      r10,0
80196b6c:	91 41 00 0c 	stw     r10,12(r1)
80196b70:	91 41 00 10 	stw     r10,16(r1)
80196b74:	91 41 00 14 	stw     r10,20(r1)
80196b78:	91 41 00 18 	stw     r10,24(r1)
80196b7c:	91 41 00 1c 	stw     r10,28(r1)
80196b80:	91 41 00 20 	stw     r10,32(r1)
80196b84:	91 41 00 24 	stw     r10,36(r1)
80196b88:	7c 24 0b 78 	mr      r4,r1
80196b8c:	39 40 00 09 	li      r10,9
80196b90:	95 44 00 08 	stwu    r10,8(r4)
80196b94:	55 29 28 34 	rlwinm  r9,r9,5,0,26
80196b98:	3d 40 80 19 	lis     r10,-32743
80196b9c:	80 6a 7b 00 	lwz     r3,31488(r10)
80196ba0:	7c 63 4a 14 	add     r3,r3,r9
80196ba4:	38 a0 00 20 	li      r5,32
80196ba8:	48 00 0d 09 	bl      801978b0 <memcpy>
80196bac:	80 01 00 64 	lwz     r0,100(r1)
80196bb0:	7c 08 03 a6 	mtlr    r0
80196bb4:	83 41 00 48 	lwz     r26,72(r1)
80196bb8:	83 61 00 4c 	lwz     r27,76(r1)
80196bbc:	83 81 00 50 	lwz     r28,80(r1)
80196bc0:	83 a1 00 54 	lwz     r29,84(r1)
80196bc4:	83 c1 00 58 	lwz     r30,88(r1)
80196bc8:	83 e1 00 5c 	lwz     r31,92(r1)
80196bcc:	38 21 00 60 	addi    r1,r1,96
80196bd0:	4e 80 00 20 	blr


80197754 <display>:

80197754:	3d 20 80 19 	lis     r9,-32743
80197758:	81 29 7a e8 	lwz     r9,31464(r9)
8019775c:	2f 89 00 00 	cmpwi   cr7,r9,0
80197760:	40 9e 00 14 	bne     cr7,80197774 <display+0x20>
80197764:	3d 40 80 19 	lis     r10,-32743
80197768:	39 4a 73 50 	addi    r10,r10,29520
8019776c:	3d 20 80 19 	lis     r9,-32743
80197770:	91 49 7b 00 	stw     r10,31488(r9)
80197774:	3d 20 80 19 	lis     r9,-32743
80197778:	81 49 7b 00 	lwz     r10,31488(r9)
8019777c:	3d 20 80 4d 	lis     r9,-32691
80197780:	61 29 68 90 	ori     r9,r9,26768
80197784:	91 49 00 00 	stw     r10,0(r9)
80197788:	4e 80 00 20 	blr


801975d0 <staticLine2>:



80197614 <staticLine1>:



80197ae8 <numLines>:

80197ae8:	00 00 00 00 	.long 0x0


80197af0 <maxLines>:

80197af0:	00 00 00 00 	.long 0x0


80197af8 <stream>:

80197af8:	00 00 00 00 	.long 0x0


80197350 <staticMenu>:

80197350:	00 00 00 01 	.long 0x1
80197354:	00 00 00 00 	.long 0x0
80197358:	80 19 76 14 	lwz     r0,30228(r25)
80197370:	00 00 00 01 	.long 0x1
80197374:	00 00 00 00 	.long 0x0
80197378:	80 19 75 d0 	lwz     r0,30160(r25)
80197390:	00 00 00 09 	.long 0x9


80197b00 <menu>:

80197b00:	00 00 00 00 	.long 0x0


80197b50 <capacity>:

80197b50:	00 00 00 00 	.long 0x0


801978b0 <memcpy>:

801978b0:	94 21 ff f8 	stwu    r1,-8(r1)
801978b4:	7c 08 02 a6 	mflr    r0
801978b8:	90 01 00 0c 	stw     r0,12(r1)
801978bc:	3d 20 80 00 	lis     r9,-32768
801978c0:	61 29 31 f4 	ori     r9,r9,12788
801978c4:	7d 29 03 a6 	mtctr   r9
801978c8:	4e 80 04 21 	bctrl
801978cc:	80 01 00 0c 	lwz     r0,12(r1)
801978d0:	7c 08 03 a6 	mtlr    r0
801978d4:	38 21 00 08 	addi    r1,r1,8
801978d8:	4e 80 00 20 	blr


801978e0 <memset>:

801978e0:	94 21 ff f8 	stwu    r1,-8(r1)
801978e4:	7c 08 02 a6 	mflr    r0
801978e8:	90 01 00 0c 	stw     r0,12(r1)
801978ec:	3d 20 80 00 	lis     r9,-32768
801978f0:	61 29 31 30 	ori     r9,r9,12592
801978f4:	7d 29 03 a6 	mtctr   r9
801978f8:	4e 80 04 21 	bctrl
801978fc:	80 01 00 0c 	lwz     r0,12(r1)
80197900:	7c 08 03 a6 	mtlr    r0
80197904:	38 21 00 08 	addi    r1,r1,8
80197908:	4e 80 00 20 	blr


80197b48 <strlen>:

80197b48:	80 32 5b 04 	lwz     r1,23300(r18)


80197b40 <strncpy>:

80197b40:	80 32 5a 0c 	lwz     r1,23052(r18)


80197468 <initHeap>:

80197468:	94 21 ff f8 	stwu    r1,-8(r1)
8019746c:	7c 08 02 a6 	mflr    r0
80197470:	90 01 00 0c 	stw     r0,12(r1)
80197474:	7d 43 20 50 	subf    r10,r3,r4
80197478:	3d 20 80 19 	lis     r9,-32743
8019747c:	91 49 7b 20 	stw     r10,31520(r9)
80197480:	3d 20 80 19 	lis     r9,-32743
80197484:	81 29 7b 18 	lwz     r9,31512(r9)
80197488:	7d 29 03 a6 	mtctr   r9
8019748c:	4e 80 04 21 	bctrl
80197490:	3d 20 80 19 	lis     r9,-32743
80197494:	90 69 7b 38 	stw     r3,31544(r9)
80197498:	39 40 00 01 	li      r10,1
8019749c:	3d 20 80 19 	lis     r9,-32743
801974a0:	91 49 7b 30 	stw     r10,31536(r9)
801974a4:	80 01 00 0c 	lwz     r0,12(r1)
801974a8:	7c 08 03 a6 	mtlr    r0
801974ac:	38 21 00 08 	addi    r1,r1,8
801974b0:	4e 80 00 20 	blr


80197410 <malloc>:

80197410:	3d 20 80 19 	lis     r9,-32743
80197414:	81 29 7b 30 	lwz     r9,31536(r9)
80197418:	2f 89 00 00 	cmpwi   cr7,r9,0
8019741c:	41 9e 00 30 	beq     cr7,8019744c <malloc+0x3c>
80197420:	94 21 ff f8 	stwu    r1,-8(r1)
80197424:	7c 08 02 a6 	mflr    r0
80197428:	90 01 00 0c 	stw     r0,12(r1)
8019742c:	7c 64 1b 78 	mr      r4,r3
80197430:	3d 20 80 19 	lis     r9,-32743
80197434:	81 29 7b 28 	lwz     r9,31528(r9)
80197438:	3d 40 80 19 	lis     r10,-32743
8019743c:	80 6a 7b 38 	lwz     r3,31544(r10)
80197440:	7d 29 03 a6 	mtctr   r9
80197444:	4e 80 04 21 	bctrl
80197448:	48 00 00 0c 	b       80197454 <malloc+0x44>
8019744c:	38 60 00 00 	li      r3,0
80197450:	4e 80 00 20 	blr
80197454:	80 01 00 0c 	lwz     r0,12(r1)
80197458:	7c 08 03 a6 	mtlr    r0
8019745c:	38 21 00 08 	addi    r1,r1,8
80197460:	4e 80 00 20 	blr


80197844 <free>:

80197844:	94 21 ff f8 	stwu    r1,-8(r1)
80197848:	7c 08 02 a6 	mflr    r0
8019784c:	90 01 00 0c 	stw     r0,12(r1)
80197850:	7c 64 1b 78 	mr      r4,r3
80197854:	3d 20 80 19 	lis     r9,-32743
80197858:	81 29 7b 10 	lwz     r9,31504(r9)
8019785c:	3d 40 80 19 	lis     r10,-32743
80197860:	80 6a 7b 38 	lwz     r3,31544(r10)
80197864:	7d 29 03 a6 	mtctr   r9
80197868:	4e 80 04 21 	bctrl
8019786c:	80 01 00 0c 	lwz     r0,12(r1)
80197870:	7c 08 03 a6 	mtlr    r0
80197874:	38 21 00 08 	addi    r1,r1,8
80197878:	4e 80 00 20 	blr


801971f8 <realloc>:

801971f8:	94 21 ff e8 	stwu    r1,-24(r1)
801971fc:	7c 08 02 a6 	mflr    r0
80197200:	90 01 00 1c 	stw     r0,28(r1)
80197204:	93 a1 00 0c 	stw     r29,12(r1)
80197208:	93 c1 00 10 	stw     r30,16(r1)
8019720c:	93 e1 00 14 	stw     r31,20(r1)
80197210:	7c 9e 23 78 	mr      r30,r4
80197214:	7c 7d 1b 79 	mr.     r29,r3
80197218:	40 a2 00 10 	bne     80197228 <realloc+0x30>
8019721c:	7c 83 23 78 	mr      r3,r4
80197220:	48 00 01 f1 	bl      80197410 <malloc>
80197224:	48 00 00 30 	b       80197254 <realloc+0x5c>
80197228:	7c 83 23 78 	mr      r3,r4
8019722c:	48 00 01 e5 	bl      80197410 <malloc>
80197230:	7c 7f 1b 78 	mr      r31,r3
80197234:	2f 9f 00 00 	cmpwi   cr7,r31,0
80197238:	41 9e 00 1c 	beq     cr7,80197254 <realloc+0x5c>
8019723c:	7f a4 eb 78 	mr      r4,r29
80197240:	7f c5 f3 78 	mr      r5,r30
80197244:	48 00 06 6d 	bl      801978b0 <memcpy>
80197248:	7f a3 eb 78 	mr      r3,r29
8019724c:	48 00 05 f9 	bl      80197844 <free>
80197250:	7f e3 fb 78 	mr      r3,r31
80197254:	80 01 00 1c 	lwz     r0,28(r1)
80197258:	7c 08 03 a6 	mtlr    r0
8019725c:	83 a1 00 0c 	lwz     r29,12(r1)
80197260:	83 c1 00 10 	lwz     r30,16(r1)
80197264:	83 e1 00 14 	lwz     r31,20(r1)
80197268:	38 21 00 18 	addi    r1,r1,24
8019726c:	4e 80 00 20 	blr


80197ab0 <getHeapSize>:

80197ab0:	3d 20 80 19 	lis     r9,-32743
80197ab4:	80 69 7b 20 	lwz     r3,31520(r9)
80197ab8:	4e 80 00 20 	blr


80197b38 <heapHandle>:

80197b38:	00 00 00 00 	.long 0x0


80197b30 <init>:

80197b30:	00 00 00 00 	.long 0x0


80197b28 <OSAllocFromHeap>:

80197b28:	80 34 3e f0 	lwz     r1,16112(r20)


80197b20 <heapSize>:

80197b20:	00 00 00 00 	.long 0x0


80197b18 <OSCreateHeap>:

80197b18:	80 34 40 e8 	lwz     r1,16616(r20)


80197b10 <OSFreeToHeap>:

80197b10:	80 34 3f ec 	lwz     r1,16364(r20)


80197b08 <_errorState>:

80197b08:	00 00 00 00 	.long 0x0



